
Discarded input sections

 .data          0x0000000000000000        0x0 arch/arm/cpu/armv8/start.o
 .bss           0x0000000000000000        0x0 arch/arm/cpu/armv8/start.o
 .text          0x0000000000000000        0x0 arch/arm/mach-zynqmp/built-in.o
 .text.set_cpu_clk_info
                0x0000000000000000       0x48 arch/arm/mach-zynqmp/built-in.o
 .text.get_page_table_size
                0x0000000000000000        0xc arch/arm/mach-zynqmp/built-in.o
 .text.tcm_init
                0x0000000000000000       0x40 arch/arm/mach-zynqmp/built-in.o
 .text.invoke_smc
                0x0000000000000000       0x68 arch/arm/mach-zynqmp/built-in.o
 .text.zynqmp_pmufw_version
                0x0000000000000000       0x68 arch/arm/mach-zynqmp/built-in.o
 .text.set_r5_tcm_mode
                0x0000000000000000       0x3c arch/arm/mach-zynqmp/built-in.o
 .text.release_r5_reset
                0x0000000000000000       0x34 arch/arm/mach-zynqmp/built-in.o
 .text.set_r5_start
                0x0000000000000000       0x50 arch/arm/mach-zynqmp/built-in.o
 .text.enable_clock_r5
                0x0000000000000000       0x24 arch/arm/mach-zynqmp/built-in.o
 .text.set_r5_halt_mode
                0x0000000000000000       0x5c arch/arm/mach-zynqmp/built-in.o
 .text.write_tcm_boot_trampoline
                0x0000000000000000       0x6c arch/arm/mach-zynqmp/built-in.o
 .text.is_core_valid
                0x0000000000000000        0xc arch/arm/mach-zynqmp/built-in.o
 .text.cpu_reset
                0x0000000000000000       0x20 arch/arm/mach-zynqmp/built-in.o
 .text.cpu_disable
                0x0000000000000000       0x54 arch/arm/mach-zynqmp/built-in.o
 .text.cpu_status
                0x0000000000000000       0xc0 arch/arm/mach-zynqmp/built-in.o
 .text.initialize_tcm
                0x0000000000000000       0x50 arch/arm/mach-zynqmp/built-in.o
 .text.cpu_release
                0x0000000000000000      0x224 arch/arm/mach-zynqmp/built-in.o
 .text.mask_pollonvalue
                0x0000000000000000       0x30 arch/arm/mach-zynqmp/built-in.o
 .text.mask_delay
                0x0000000000000000        0x8 arch/arm/mach-zynqmp/built-in.o
 .text.psu_init
                0x0000000000000000        0x8 arch/arm/mach-zynqmp/built-in.o
 .rodata.tcm_init.str1.1
                0x0000000000000000       0x32 arch/arm/mach-zynqmp/built-in.o
 .rodata.zynqmp_pmufw_version.str1.1
                0x0000000000000000       0x26 arch/arm/mach-zynqmp/built-in.o
 .rodata.cpu_release.str1.1
                0x0000000000000000       0xc3 arch/arm/mach-zynqmp/built-in.o
 .rodata.cpu_reset.str1.1
                0x0000000000000000       0x1d arch/arm/mach-zynqmp/built-in.o
 .rodata.cpu_status.str1.1
                0x0000000000000000       0x46 arch/arm/mach-zynqmp/built-in.o
 .data          0x0000000000000000        0x0 arch/arm/mach-zynqmp/built-in.o
 .data.mem_map  0x0000000000000000        0x8 arch/arm/mach-zynqmp/built-in.o
 .data.pm_api_version.7609
                0x0000000000000000        0x4 arch/arm/mach-zynqmp/built-in.o
 .bss           0x0000000000000000        0x0 arch/arm/mach-zynqmp/built-in.o
 .text          0x0000000000000000      0x390 arch/arm/cpu/armv8/built-in.o
 .text.sdelay   0x0000000000000000        0xc arch/arm/cpu/armv8/built-in.o
 .text.timer_read_counter
                0x0000000000000000        0xc arch/arm/cpu/armv8/built-in.o
 .text.usec2ticks
                0x0000000000000000       0x44 arch/arm/cpu/armv8/built-in.o
 .text.timer_get_boot_us
                0x0000000000000000       0x28 arch/arm/cpu/armv8/built-in.o
 .text.count_required_pts
                0x0000000000000000       0xf8 arch/arm/cpu/armv8/built-in.o
 .text.create_table
                0x0000000000000000       0x70 arch/arm/cpu/armv8/built-in.o
 .text.split_block
                0x0000000000000000       0x9c arch/arm/cpu/armv8/built-in.o
 .text.get_tcr  0x0000000000000000       0xe4 arch/arm/cpu/armv8/built-in.o
 .text.find_pte
                0x0000000000000000       0x9c arch/arm/cpu/armv8/built-in.o
 .text.set_one_region
                0x0000000000000000       0xd8 arch/arm/cpu/armv8/built-in.o
 .text.get_page_table_size
                0x0000000000000000       0x48 arch/arm/cpu/armv8/built-in.o
 .text.setup_pgtables
                0x0000000000000000      0x178 arch/arm/cpu/armv8/built-in.o
 .text.mmu_setup
                0x0000000000000000      0x13c arch/arm/cpu/armv8/built-in.o
 .text.flush_dcache_all
                0x0000000000000000       0x14 arch/arm/cpu/armv8/built-in.o
 .text.invalidate_dcache_range
                0x0000000000000000        0x4 arch/arm/cpu/armv8/built-in.o
 .text.dcache_enable
                0x0000000000000000      0x110 arch/arm/cpu/armv8/built-in.o
 .text.dcache_status
                0x0000000000000000       0x34 arch/arm/cpu/armv8/built-in.o
 .text.arch_get_page_table
                0x0000000000000000       0x20 arch/arm/cpu/armv8/built-in.o
 .text.mmu_set_region_dcache_behaviour
                0x0000000000000000       0xa8 arch/arm/cpu/armv8/built-in.o
 .text.mmu_change_region_attr
                0x0000000000000000       0xe8 arch/arm/cpu/armv8/built-in.o
 .text.icache_status
                0x0000000000000000       0x34 arch/arm/cpu/armv8/built-in.o
 .text.icache_enable
                0x0000000000000000       0x74 arch/arm/cpu/armv8/built-in.o
 .text.enable_caches
                0x0000000000000000       0x14 arch/arm/cpu/armv8/built-in.o
 .text.__asm_invalidate_dcache_range
                0x0000000000000000       0x30 arch/arm/cpu/armv8/built-in.o
 .text.__asm_switch_ttbr
                0x0000000000000000       0xe0 arch/arm/cpu/armv8/built-in.o
 .text.armv8_switch_to_el1
                0x0000000000000000       0xd0 arch/arm/cpu/armv8/built-in.o
 .text.smc_call
                0x0000000000000000       0x44 arch/arm/cpu/armv8/built-in.o
 .text.psci_system_reset
                0x0000000000000000       0x20 arch/arm/cpu/armv8/built-in.o
 .text.psci_system_off
                0x0000000000000000       0x20 arch/arm/cpu/armv8/built-in.o
 .text.efi_runtime
                0x0000000000000000       0x58 arch/arm/cpu/armv8/built-in.o
 .rodata.arch_get_page_table.str1.1
                0x0000000000000000       0x1e arch/arm/cpu/armv8/built-in.o
 .rodata.create_table.str1.1
                0x0000000000000000       0x62 arch/arm/cpu/armv8/built-in.o
 .rodata.mmu_set_region_dcache_behaviour.str1.1
                0x0000000000000000       0x20 arch/arm/cpu/armv8/built-in.o
 .rodata.set_one_region.str1.1
                0x0000000000000000       0x2e arch/arm/cpu/armv8/built-in.o
 .rodata.setup_pgtables.str1.1
                0x0000000000000000       0x2d arch/arm/cpu/armv8/built-in.o
 .rodata.split_block.str1.1
                0x0000000000000000       0x74 arch/arm/cpu/armv8/built-in.o
 .eh_frame      0x0000000000000000       0x3c arch/arm/cpu/armv8/built-in.o
 .data          0x0000000000000000        0x0 arch/arm/cpu/armv8/built-in.o
 .bss           0x0000000000000000        0x0 arch/arm/cpu/armv8/built-in.o
 .text.setjmp   0x0000000000000000       0x28 arch/arm/lib/built-in.o
 .text.longjmp  0x0000000000000000       0x2c arch/arm/lib/built-in.o
 .text.board_init_f
                0x0000000000000000        0x4 arch/arm/lib/built-in.o
 .text.arch_reserve_stacks
                0x0000000000000000       0x1c arch/arm/lib/built-in.o
 .text.interrupt_init
                0x0000000000000000        0x8 arch/arm/lib/built-in.o
 .text.enable_interrupts
                0x0000000000000000        0x4 arch/arm/lib/built-in.o
 .text.show_regs
                0x0000000000000000       0x9c arch/arm/lib/built-in.o
 .text.do_bad_sync
                0x0000000000000000       0x30 arch/arm/lib/built-in.o
 .text.do_bad_irq
                0x0000000000000000       0x30 arch/arm/lib/built-in.o
 .text.do_bad_fiq
                0x0000000000000000       0x30 arch/arm/lib/built-in.o
 .text.do_bad_error
                0x0000000000000000       0x30 arch/arm/lib/built-in.o
 .text.do_sync  0x0000000000000000       0x30 arch/arm/lib/built-in.o
 .text.do_irq   0x0000000000000000       0x30 arch/arm/lib/built-in.o
 .text.do_fiq   0x0000000000000000       0x30 arch/arm/lib/built-in.o
 .text.do_error
                0x0000000000000000       0x30 arch/arm/lib/built-in.o
 .text.reset_misc
                0x0000000000000000        0x4 arch/arm/lib/built-in.o
 .text.do_reset
                0x0000000000000000       0x38 arch/arm/lib/built-in.o
 .text.enable_caches
                0x0000000000000000        0xc arch/arm/lib/built-in.o
 .text.invalidate_dcache_range
                0x0000000000000000        0x4 arch/arm/lib/built-in.o
 .text.flush_dcache_range
                0x0000000000000000        0x4 arch/arm/lib/built-in.o
 .text.flush_cache
                0x0000000000000000        0x8 arch/arm/lib/built-in.o
 .text.flush_dcache_all
                0x0000000000000000        0xc arch/arm/lib/built-in.o
 .text.check_cache_range
                0x0000000000000000       0x1c arch/arm/lib/built-in.o
 .text.fdt_psci
                0x0000000000000000        0x8 arch/arm/lib/built-in.o
 .rodata.do_bad_error.str1.1
                0x0000000000000000       0x29 arch/arm/lib/built-in.o
 .rodata.do_bad_fiq.str1.1
                0x0000000000000000       0x27 arch/arm/lib/built-in.o
 .rodata.do_bad_irq.str1.1
                0x0000000000000000       0x27 arch/arm/lib/built-in.o
 .rodata.do_bad_sync.str1.1
                0x0000000000000000       0x48 arch/arm/lib/built-in.o
 .rodata.do_error.str1.1
                0x0000000000000000       0x1d arch/arm/lib/built-in.o
 .rodata.do_fiq.str1.1
                0x0000000000000000       0x1b arch/arm/lib/built-in.o
 .rodata.do_irq.str1.1
                0x0000000000000000       0x1b arch/arm/lib/built-in.o
 .rodata.do_sync.str1.1
                0x0000000000000000       0x29 arch/arm/lib/built-in.o
 .rodata.show_regs.str1.1
                0x0000000000000000       0x59 arch/arm/lib/built-in.o
 .rodata.do_reset.str1.1
                0x0000000000000000        0xf arch/arm/lib/built-in.o
 .rodata.enable_caches.str1.1
                0x0000000000000000       0x1d arch/arm/lib/built-in.o
 .data          0x0000000000000000        0x0 arch/arm/lib/built-in.o
 .__efi_runtime_rel_start
                0x0000000000000000        0x0 arch/arm/lib/built-in.o
 .__efi_runtime_rel_stop
                0x0000000000000000        0x0 arch/arm/lib/built-in.o
 .__efi_runtime_start
                0x0000000000000000        0x0 arch/arm/lib/built-in.o
 .__efi_runtime_stop
                0x0000000000000000        0x0 arch/arm/lib/built-in.o
 .__image_copy_end
                0x0000000000000000        0x0 arch/arm/lib/built-in.o
 .__image_copy_start
                0x0000000000000000        0x0 arch/arm/lib/built-in.o
 .__rel_dyn_end
                0x0000000000000000        0x0 arch/arm/lib/built-in.o
 .__rel_dyn_start
                0x0000000000000000        0x0 arch/arm/lib/built-in.o
 .__secure_end  0x0000000000000000        0x0 arch/arm/lib/built-in.o
 .__secure_stack_end
                0x0000000000000000        0x0 arch/arm/lib/built-in.o
 .__secure_stack_start
                0x0000000000000000        0x0 arch/arm/lib/built-in.o
 .__secure_start
                0x0000000000000000        0x0 arch/arm/lib/built-in.o
 .bss           0x0000000000000000        0x0 arch/arm/lib/built-in.o
 .text          0x0000000000000000        0x0 board/xilinx/zynqmp/built-in.o
 .text.chip_id  0x0000000000000000       0xd0 board/xilinx/zynqmp/built-in.o
 .text.do_go_exec
                0x0000000000000000       0x64 board/xilinx/zynqmp/built-in.o
 .text.dram_init
                0x0000000000000000       0x20 board/xilinx/zynqmp/built-in.o
 .text.reset_cpu
                0x0000000000000000        0x4 board/xilinx/zynqmp/built-in.o
 .text.board_late_init
                0x0000000000000000      0x4f8 board/xilinx/zynqmp/built-in.o
 .text.checkboard
                0x0000000000000000       0x20 board/xilinx/zynqmp/built-in.o
 .text.zynq_board_read_rom_ethaddr
                0x0000000000000000       0x60 board/xilinx/zynqmp/built-in.o
 .text.Xil_Out32
                0x0000000000000000        0xc board/xilinx/zynqmp/built-in.o
 .text.Xil_In32
                0x0000000000000000        0xc board/xilinx/zynqmp/built-in.o
 .text.usleep   0x0000000000000000        0x8 board/xilinx/zynqmp/built-in.o
 .rodata.board_late_init
                0x0000000000000000       0x1e board/xilinx/zynqmp/built-in.o
 .rodata.__func__.10539
                0x0000000000000000        0x8 board/xilinx/zynqmp/built-in.o
 .rodata.board_late_init.str1.1
                0x0000000000000000      0x1e5 board/xilinx/zynqmp/built-in.o
 .rodata.checkboard.str1.1
                0x0000000000000000       0x16 board/xilinx/zynqmp/built-in.o
 .rodata.chip_id.str1.1
                0x0000000000000000       0x16 board/xilinx/zynqmp/built-in.o
 .rodata.do_go_exec.str1.1
                0x0000000000000000       0x23 board/xilinx/zynqmp/built-in.o
 .rodata.reset_reasons
                0x0000000000000000       0x80 board/xilinx/zynqmp/built-in.o
 .rodata.str1.1
                0x0000000000000000       0x2e board/xilinx/zynqmp/built-in.o
 .rodata.zynq_board_read_rom_ethaddr.str1.1
                0x0000000000000000        0xc board/xilinx/zynqmp/built-in.o
 .data          0x0000000000000000        0x0 board/xilinx/zynqmp/built-in.o
 .bss           0x0000000000000000        0x0 board/xilinx/zynqmp/built-in.o
 .text          0x0000000000000000        0x0 common/spl/built-in.o
 .text.dram_init_banksize
                0x0000000000000000        0x8 common/spl/built-in.o
 .text.spl_start_uboot
                0x0000000000000000       0x2c common/spl/built-in.o
 .text.bootz_setup
                0x0000000000000000        0x8 common/spl/built-in.o
 .text.spl_early_init
                0x0000000000000000       0x24 common/spl/built-in.o
 .text.board_spl_fit_post_load
                0x0000000000000000        0x4 common/spl/built-in.o
 .rodata.spl_start_uboot.str1.1
                0x0000000000000000       0x5c common/spl/built-in.o
 .bss           0x0000000000000000        0x0 common/spl/built-in.o
 .bss.boot_params_ptr
                0x0000000000000000        0x8 common/spl/built-in.o
 .text          0x0000000000000000        0x0 common/init/built-in.o
 .text.show_boot_progress
                0x0000000000000000        0x4 common/init/built-in.o
 .data          0x0000000000000000        0x0 common/init/built-in.o
 .bss           0x0000000000000000        0x0 common/init/built-in.o
 .text          0x0000000000000000        0x0 common/built-in.o
 .text.of_bus_default_map
                0x0000000000000000       0xa8 common/built-in.o
 .text.fdt_read_prop
                0x0000000000000000       0x48 common/built-in.o
 .text.of_bus_default_translate
                0x0000000000000000       0xb8 common/built-in.o
 .text.fdt_support_default_count_cells
                0x0000000000000000       0x70 common/built-in.o
 .text.fdt_getprop_u32_default_node
                0x0000000000000000       0x4c common/built-in.o
 .text.fdt_getprop_u32_default
                0x0000000000000000       0x5c common/built-in.o
 .text.fdt_find_and_setprop
                0x0000000000000000       0x94 common/built-in.o
 .text.fdt_root
                0x0000000000000000       0x98 common/built-in.o
 .text.fdt_initrd
                0x0000000000000000      0x1b8 common/built-in.o
 .text.fdt_chosen
                0x0000000000000000       0xbc common/built-in.o
 .text.do_fixup_by_path
                0x0000000000000000       0x4c common/built-in.o
 .text.do_fixup_by_path_u32
                0x0000000000000000       0x28 common/built-in.o
 .text.do_fixup_by_prop
                0x0000000000000000       0xc8 common/built-in.o
 .text.do_fixup_by_prop_u32
                0x0000000000000000       0x28 common/built-in.o
 .text.do_fixup_by_compat
                0x0000000000000000       0xa8 common/built-in.o
 .text.do_fixup_by_compat_u32
                0x0000000000000000       0x28 common/built-in.o
 .text.fdt_fixup_memory
                0x0000000000000000       0x2c common/built-in.o
 .text.fdt_fixup_ethernet
                0x0000000000000000      0x1a8 common/built-in.o
 .text.fdt_increase_size
                0x0000000000000000       0x14 common/built-in.o
 .text.fdt_del_node_and_alias
                0x0000000000000000       0x5c common/built-in.o
 .text.fdt_translate_address
                0x0000000000000000      0x290 common/built-in.o
 .text.fdt_node_offset_by_compat_reg
                0x0000000000000000       0xa0 common/built-in.o
 .text.fdt_alloc_phandle
                0x0000000000000000       0x6c common/built-in.o
 .text.fdt_set_phandle
                0x0000000000000000       0x6c common/built-in.o
 .text.fdt_create_phandle
                0x0000000000000000       0x78 common/built-in.o
 .text.fdt_set_node_status
                0x0000000000000000       0xd8 common/built-in.o
 .text.fdt_set_status_by_alias
                0x0000000000000000       0x40 common/built-in.o
 .text.fdt_verify_alias_address
                0x0000000000000000       0xdc common/built-in.o
 .text.fdt_get_base_address
                0x0000000000000000       0x4c common/built-in.o
 .text.fdt_read_range
                0x0000000000000000      0x154 common/built-in.o
 .text.fdt_setup_simplefb_node
                0x0000000000000000      0x1fc common/built-in.o
 .text.fdt_fixup_display
                0x0000000000000000       0xe8 common/built-in.o
 .text.console_setfile
                0x0000000000000000       0xbc common/built-in.o
 .text.serial_printf
                0x0000000000000000       0xb0 common/built-in.o
 .text.fgetc    0x0000000000000000       0x14 common/built-in.o
 .text.fprintf  0x0000000000000000       0xb4 common/built-in.o
 .text.confirm_yesno
                0x0000000000000000       0xd4 common/built-in.o
 .text.disable_ctrlc
                0x0000000000000000       0x14 common/built-in.o
 .text.had_ctrlc
                0x0000000000000000        0xc common/built-in.o
 .text.clear_ctrlc
                0x0000000000000000        0xc common/built-in.o
 .text.search_device
                0x0000000000000000       0x34 common/built-in.o
 .text.console_assign
                0x0000000000000000       0x68 common/built-in.o
 .text.console_announce_r
                0x0000000000000000       0x84 common/built-in.o
 .text.console_init_f
                0x0000000000000000       0x10 common/built-in.o
 .text.stdio_print_current_devices
                0x0000000000000000       0xc0 common/built-in.o
 .text.console_init_r
                0x0000000000000000       0xe0 common/built-in.o
 .text.realloc  0x0000000000000000      0x468 common/built-in.o
 .text.valloc   0x0000000000000000        0xc common/built-in.o
 .text.pvalloc  0x0000000000000000       0x10 common/built-in.o
 .text.cfree    0x0000000000000000        0x4 common/built-in.o
 .text.malloc_usable_size
                0x0000000000000000       0x44 common/built-in.o
 .text.mallopt  0x0000000000000000       0x5c common/built-in.o
 .text.initf_malloc
                0x0000000000000000       0x18 common/built-in.o
 .text.memalign_simple
                0x0000000000000000       0x10 common/built-in.o
 .text.malloc_simple_info
                0x0000000000000000        0x4 common/built-in.o
 .text.image_check_hcrc
                0x0000000000000000       0x50 common/built-in.o
 .text.image_check_dcrc
                0x0000000000000000       0x44 common/built-in.o
 .text.image_multi_count
                0x0000000000000000       0x20 common/built-in.o
 .text.image_multi_getimg
                0x0000000000000000       0x88 common/built-in.o
 .text.env_get_bootm_low
                0x0000000000000000       0x38 common/built-in.o
 .text.env_get_bootm_size
                0x0000000000000000       0x78 common/built-in.o
 .text.env_get_bootm_mapsize
                0x0000000000000000       0x30 common/built-in.o
 .text.memmove_wd
                0x0000000000000000       0x10 common/built-in.o
 .text.genimg_print_size
                0x0000000000000000       0x38 common/built-in.o
 .text.get_table_entry
                0x0000000000000000       0x20 common/built-in.o
 .text.genimg_get_short_name
                0x0000000000000000       0x28 common/built-in.o
 .text.genimg_get_cat_name
                0x0000000000000000       0x78 common/built-in.o
 .text.genimg_get_cat_short_name
                0x0000000000000000       0x78 common/built-in.o
 .text.genimg_get_cat_count
                0x0000000000000000       0x1c common/built-in.o
 .text.genimg_get_cat_desc
                0x0000000000000000       0x1c common/built-in.o
 .text.get_table_entry_name
                0x0000000000000000       0x28 common/built-in.o
 .text.genimg_get_os_name
                0x0000000000000000       0x18 common/built-in.o
 .text.genimg_get_arch_name
                0x0000000000000000       0x18 common/built-in.o
 .text.genimg_get_type_name
                0x0000000000000000       0x18 common/built-in.o
 .text.genimg_get_type_short_name
                0x0000000000000000       0x10 common/built-in.o
 .text.genimg_get_comp_name
                0x0000000000000000       0x18 common/built-in.o
 .text.image_print_contents
                0x0000000000000000      0x1b8 common/built-in.o
 .text.genimg_get_comp_short_name
                0x0000000000000000       0x10 common/built-in.o
 .text.genimg_get_os_short_name
                0x0000000000000000       0x10 common/built-in.o
 .text.genimg_get_arch_short_name
                0x0000000000000000       0x10 common/built-in.o
 .text.genimg_get_arch_id
                0x0000000000000000       0x18 common/built-in.o
 .text.genimg_get_type_id
                0x0000000000000000       0x18 common/built-in.o
 .text.genimg_get_comp_id
                0x0000000000000000       0x18 common/built-in.o
 .text.genimg_get_kernel_addr_fit
                0x0000000000000000       0x7c common/built-in.o
 .text.genimg_get_kernel_addr
                0x0000000000000000       0x24 common/built-in.o
 .text.genimg_get_format
                0x0000000000000000       0x5c common/built-in.o
 .text.genimg_has_config
                0x0000000000000000       0x10 common/built-in.o
 .text.boot_get_ramdisk
                0x0000000000000000      0x3ac common/built-in.o
 .text.boot_ramdisk_high
                0x0000000000000000      0x148 common/built-in.o
 .text.boot_get_setup
                0x0000000000000000        0x4 common/built-in.o
 .text.boot_get_fpga
                0x0000000000000000      0x160 common/built-in.o
 .text.boot_get_loadable
                0x0000000000000000      0x190 common/built-in.o
 .text.image_setup_linux
                0x0000000000000000       0x6c common/built-in.o
 .text.android_image_get_kernel
                0x0000000000000000      0x200 common/built-in.o
 .text.android_image_check_header
                0x0000000000000000       0x14 common/built-in.o
 .text.android_image_get_end
                0x0000000000000000       0xac common/built-in.o
 .text.android_image_get_kload
                0x0000000000000000       0x58 common/built-in.o
 .text.android_image_get_ramdisk
                0x0000000000000000      0x128 common/built-in.o
 .text.android_image_get_second
                0x0000000000000000      0x14c common/built-in.o
 .text.fdt_error
                0x0000000000000000       0x38 common/built-in.o
 .text.boot_fdt_add_mem_rsv_regions
                0x0000000000000000       0x94 common/built-in.o
 .text.boot_relocate_fdt
                0x0000000000000000      0x1b8 common/built-in.o
 .text.boot_get_fdt
                0x0000000000000000      0x390 common/built-in.o
 .text.ft_verify_fdt
                0x0000000000000000        0x8 common/built-in.o
 .text.arch_fixup_fdt
                0x0000000000000000        0x8 common/built-in.o
 .text.image_setup_libfdt
                0x0000000000000000      0x114 common/built-in.o
 .text.fit_parse_conf
                0x0000000000000000       0x78 common/built-in.o
 .text.fit_parse_subimage
                0x0000000000000000       0x78 common/built-in.o
 .text.fit_get_subimage_count
                0x0000000000000000       0x68 common/built-in.o
 .text.fit_print_contents
                0x0000000000000000        0x4 common/built-in.o
 .text.fit_image_print
                0x0000000000000000        0x4 common/built-in.o
 .text.fit_get_desc
                0x0000000000000000       0x38 common/built-in.o
 .text.fit_get_timestamp
                0x0000000000000000       0x5c common/built-in.o
 .text.fit_image_get_node
                0x0000000000000000       0x48 common/built-in.o
 .text.fit_image_get_arch
                0x0000000000000000       0x4c common/built-in.o
 .text.fit_image_get_type
                0x0000000000000000       0x4c common/built-in.o
 .text.fit_image_get_comp
                0x0000000000000000       0x4c common/built-in.o
 .text.fit_image_get_entry
                0x0000000000000000       0x10 common/built-in.o
 .text.fit_image_get_data_and_size
                0x0000000000000000       0xa8 common/built-in.o
 .text.fit_image_hash_get_algo
                0x0000000000000000       0x38 common/built-in.o
 .text.fit_image_hash_get_value
                0x0000000000000000       0x50 common/built-in.o
 .text.fit_get_end
                0x0000000000000000       0x10 common/built-in.o
 .text.fit_set_timestamp
                0x0000000000000000       0x44 common/built-in.o
 .text.calculate_hash
                0x0000000000000000       0x78 common/built-in.o
 .text.fit_image_verify_with_data
                0x0000000000000000      0x1f4 common/built-in.o
 .text.fit_image_verify
                0x0000000000000000       0x90 common/built-in.o
 .text.fit_all_image_verify
                0x0000000000000000      0x114 common/built-in.o
 .text.fit_image_check_os
                0x0000000000000000       0x3c common/built-in.o
 .text.fit_image_check_arch
                0x0000000000000000       0x64 common/built-in.o
 .text.fit_image_check_type
                0x0000000000000000       0x3c common/built-in.o
 .text.fit_image_check_comp
                0x0000000000000000       0x3c common/built-in.o
 .text.fit_check_format
                0x0000000000000000       0x54 common/built-in.o
 .text.fit_conf_find_compat
                0x0000000000000000      0x1a4 common/built-in.o
 .text.fit_conf_get_node
                0x0000000000000000       0xe0 common/built-in.o
 .text.fit_conf_get_prop_node_count
                0x0000000000000000        0x4 common/built-in.o
 .text.fit_conf_get_prop_node_index
                0x0000000000000000       0x3c common/built-in.o
 .text.fit_conf_get_prop_node
                0x0000000000000000        0x8 common/built-in.o
 .text.fit_get_node_from_config
                0x0000000000000000       0x54 common/built-in.o
 .text.fit_image_load
                0x0000000000000000      0x564 common/built-in.o
 .text.boot_get_setup_fit
                0x0000000000000000       0x78 common/built-in.o
 .text.boot_get_fdt_fit
                0x0000000000000000      0x180 common/built-in.o
 .text.get_ram_size
                0x0000000000000000       0xfc common/built-in.o
 .text.get_effective_memsize
                0x0000000000000000        0x8 common/built-in.o
 .text.stdio_serial_tstc
                0x0000000000000000        0x4 common/built-in.o
 .text.stdio_serial_getc
                0x0000000000000000        0x4 common/built-in.o
 .text.stdio_serial_puts
                0x0000000000000000        0x8 common/built-in.o
 .text.stdio_serial_putc
                0x0000000000000000        0x8 common/built-in.o
 .text.stdio_get_list
                0x0000000000000000       0x10 common/built-in.o
 .text.stdio_get_by_name
                0x0000000000000000       0x6c common/built-in.o
 .text.stdio_clone
                0x0000000000000000       0x4c common/built-in.o
 .text.stdio_register_dev
                0x0000000000000000       0x58 common/built-in.o
 .text.stdio_register
                0x0000000000000000        0x8 common/built-in.o
 .text.stdio_init_tables
                0x0000000000000000       0x18 common/built-in.o
 .text.stdio_add_devices
                0x0000000000000000       0x78 common/built-in.o
 .text.stdio_init
                0x0000000000000000       0x1c common/built-in.o
 .text.run_command
                0x0000000000000000       0x14 common/built-in.o
 .text.run_command_repeatable
                0x0000000000000000       0x20 common/built-in.o
 .text.run_command_list
                0x0000000000000000       0x90 common/built-in.o
 .text.do_run   0x0000000000000000       0x80 common/built-in.o
 .text.cli_process_fdt
                0x0000000000000000       0x50 common/built-in.o
 .text.cli_secure_boot_cmd
                0x0000000000000000       0x74 common/built-in.o
 .text.cli_loop
                0x0000000000000000       0x10 common/built-in.o
 .text.cli_init
                0x0000000000000000        0x4 common/built-in.o
 .text.run_usb_dnl_gadget
                0x0000000000000000      0x12c common/built-in.o
 .text.find_cmd_tbl
                0x0000000000000000       0xc0 common/built-in.o
 .text.find_cmd
                0x0000000000000000       0x28 common/built-in.o
 .text.cmd_usage
                0x0000000000000000       0x68 common/built-in.o
 .text._do_help
                0x0000000000000000      0x194 common/built-in.o
 .text.var_complete
                0x0000000000000000       0x78 common/built-in.o
 .text.cmd_auto_complete
                0x0000000000000000      0x4a8 common/built-in.o
 .text.cmd_get_data_size
                0x0000000000000000       0x6c common/built-in.o
 .text.cmd_process
                0x0000000000000000      0x10c common/built-in.o
 .text.cmd_process_error
                0x0000000000000000       0x40 common/built-in.o
 .text.hex1_bin
                0x0000000000000000       0x44 common/built-in.o
 .text.hex2_bin
                0x0000000000000000       0x40 common/built-in.o
 .text.srec_decode
                0x0000000000000000      0x228 common/built-in.o
 .text.CYGACC_COMM_IF_GETC_TIMEOUT.isra.0
                0x0000000000000000       0x54 common/built-in.o
 .text.xyzModem_flush
                0x0000000000000000       0x1c common/built-in.o
 .text.xyzModem_get_hdr
                0x0000000000000000      0x21c common/built-in.o
 .text.xyzModem_stream_open
                0x0000000000000000      0x260 common/built-in.o
 .text.xyzModem_stream_read
                0x0000000000000000      0x270 common/built-in.o
 .text.xyzModem_stream_close
                0x0000000000000000       0x3c common/built-in.o
 .text.xyzModem_stream_terminate
                0x0000000000000000       0xa4 common/built-in.o
 .text.xyzModem_error
                0x0000000000000000       0x28 common/built-in.o
 .rodata.fdt_set_node_status
                0x0000000000000000        0x4 common/built-in.o
 .rodata.__FUNCTION__.8461
                0x0000000000000000       0x17 common/built-in.o
 .rodata.do_fixup_by_path.str1.1
                0x0000000000000000       0x29 common/built-in.o
 .rodata.fdt_chosen.str1.1
                0x0000000000000000       0x3e common/built-in.o
 .rodata.fdt_create_phandle.str1.1
                0x0000000000000000       0x1a common/built-in.o
 .rodata.fdt_fixup_display.str1.1
                0x0000000000000000       0x1c common/built-in.o
 .rodata.fdt_fixup_ethernet.str1.1
                0x0000000000000000       0x42 common/built-in.o
 .rodata.fdt_initrd.str1.1
                0x0000000000000000       0x97 common/built-in.o
 .rodata.fdt_read_range.str1.1
                0x0000000000000000        0xf common/built-in.o
 .rodata.fdt_root.str1.1
                0x0000000000000000       0x4e common/built-in.o
 .rodata.fdt_set_node_status.str1.1
                0x0000000000000000       0x3a common/built-in.o
 .rodata.fdt_set_phandle.str1.1
                0x0000000000000000       0x16 common/built-in.o
 .rodata.fdt_setup_simplefb_node.str1.1
                0x0000000000000000       0x2c common/built-in.o
 .rodata.fdt_support_default_count_cells.str1.1
                0x0000000000000000        0xc common/built-in.o
 .rodata.fdt_translate_address.str1.1
                0x0000000000000000       0x22 common/built-in.o
 .rodata.fdt_verify_alias_address.str1.1
                0x0000000000000000       0xcc common/built-in.o
 .rodata.confirm_yesno.str1.1
                0x0000000000000000       0x10 common/built-in.o
 .rodata.console_announce_r.str1.1
                0x0000000000000000        0x7 common/built-in.o
 .rodata.stdio_print_current_devices.str1.1
                0x0000000000000000       0x74 common/built-in.o
 .rodata.mallopt
                0x0000000000000000        0x4 common/built-in.o
 .rodata.realloc.str1.1
                0x0000000000000000       0x25 common/built-in.o
 .rodata.boot_get_fpga.str1.1
                0x0000000000000000       0x69 common/built-in.o
 .rodata.boot_get_loadable.str1.1
                0x0000000000000000        0xa common/built-in.o
 .rodata.boot_get_ramdisk.str1.1
                0x0000000000000000      0x115 common/built-in.o
 .rodata.boot_ramdisk_high.str1.1
                0x0000000000000000       0x54 common/built-in.o
 .rodata.env_get_bootm_low.str1.1
                0x0000000000000000        0xa common/built-in.o
 .rodata.env_get_bootm_mapsize.str1.1
                0x0000000000000000        0xe common/built-in.o
 .rodata.env_get_bootm_size.str1.1
                0x0000000000000000        0xb common/built-in.o
 .rodata.genimg_get_arch_id.str1.1
                0x0000000000000000        0x4 common/built-in.o
 .rodata.genimg_get_arch_name.str1.1
                0x0000000000000000       0x15 common/built-in.o
 .rodata.genimg_get_comp_id.str1.1
                0x0000000000000000        0xc common/built-in.o
 .rodata.genimg_get_comp_name.str1.1
                0x0000000000000000       0x14 common/built-in.o
 .rodata.genimg_get_os_name.str1.1
                0x0000000000000000        0xb common/built-in.o
 .rodata.genimg_get_short_name.str1.1
                0x0000000000000000        0x8 common/built-in.o
 .rodata.genimg_get_type_id.str1.1
                0x0000000000000000        0x6 common/built-in.o
 .rodata.genimg_get_type_name.str1.1
                0x0000000000000000        0xe common/built-in.o
 .rodata.genimg_print_size.str1.1
                0x0000000000000000        0xe common/built-in.o
 .rodata.image_print_contents.str1.1
                0x0000000000000000       0xd4 common/built-in.o
 .rodata.table_info
                0x0000000000000000       0x60 common/built-in.o
 .rodata.uimage_arch
                0x0000000000000000      0x288 common/built-in.o
 .rodata.uimage_comp
                0x0000000000000000       0xa8 common/built-in.o
 .rodata.uimage_type
                0x0000000000000000      0x3a8 common/built-in.o
 .rodata.unknown_str.8078
                0x0000000000000000        0x9 common/built-in.o
 .rodata.android_image_check_header.str1.1
                0x0000000000000000        0x9 common/built-in.o
 .rodata.android_image_get_kernel.str1.1
                0x0000000000000000       0x96 common/built-in.o
 .rodata.android_image_get_ramdisk.str1.1
                0x0000000000000000       0x27 common/built-in.o
 .rodata.android_image_get_second.str1.1
                0x0000000000000000       0x19 common/built-in.o
 .rodata.boot_fdt_add_mem_rsv_regions.str1.1
                0x0000000000000000       0x35 common/built-in.o
 .rodata.boot_get_fdt.str1.1
                0x0000000000000000      0x1d4 common/built-in.o
 .rodata.boot_relocate_fdt.str1.1
                0x0000000000000000       0xd3 common/built-in.o
 .rodata.fdt_error.str1.1
                0x0000000000000000       0x2d common/built-in.o
 .rodata.image_setup_libfdt.str1.1
                0x0000000000000000       0x8f common/built-in.o
 .rodata.CSWTCH.114
                0x0000000000000000       0xe8 common/built-in.o
 .rodata.boot_get_fdt_fit.str1.1
                0x0000000000000000       0x3b common/built-in.o
 .rodata.boot_get_setup_fit.str1.1
                0x0000000000000000        0x6 common/built-in.o
 .rodata.calculate_hash.str1.1
                0x0000000000000000        0x7 common/built-in.o
 .rodata.fit_all_image_verify.str1.1
                0x0000000000000000       0x7c common/built-in.o
 .rodata.fit_conf_find_compat.str1.1
                0x0000000000000000       0x1f common/built-in.o
 .rodata.fit_conf_get_node.str1.1
                0x0000000000000000        0x8 common/built-in.o
 .rodata.fit_get_desc.str1.1
                0x0000000000000000        0xc common/built-in.o
 .rodata.fit_get_timestamp.str1.1
                0x0000000000000000        0xa common/built-in.o
 .rodata.fit_image_get_arch.str1.1
                0x0000000000000000        0x5 common/built-in.o
 .rodata.fit_image_get_comp.str1.1
                0x0000000000000000        0xc common/built-in.o
 .rodata.fit_image_get_entry.str1.1
                0x0000000000000000        0x6 common/built-in.o
 .rodata.fit_image_get_node.str1.1
                0x0000000000000000        0x8 common/built-in.o
 .rodata.fit_image_get_type.str1.1
                0x0000000000000000        0x5 common/built-in.o
 .rodata.fit_image_hash_get_algo.str1.1
                0x0000000000000000        0x5 common/built-in.o
 .rodata.fit_image_hash_get_value.str1.1
                0x0000000000000000        0x6 common/built-in.o
 .rodata.fit_image_load.str1.1
                0x0000000000000000      0x1e0 common/built-in.o
 .rodata.fit_image_verify.str1.1
                0x0000000000000000       0x4b common/built-in.o
 .rodata.fit_image_verify_with_data.str1.1
                0x0000000000000000       0xe8 common/built-in.o
 .rodata.stdio_add_devices.str1.1
                0x0000000000000000        0x7 common/built-in.o
 .rodata.cli_process_fdt.str1.1
                0x0000000000000000       0x13 common/built-in.o
 .rodata.cli_secure_boot_cmd.str1.1
                0x0000000000000000       0x50 common/built-in.o
 .rodata.do_run.str1.1
                0x0000000000000000       0x1c common/built-in.o
 .rodata.run_usb_dnl_gadget.str1.1
                0x0000000000000000       0x51 common/built-in.o
 .rodata.CSWTCH.43
                0x0000000000000000       0x16 common/built-in.o
 .rodata._do_help.str1.1
                0x0000000000000000       0x5f common/built-in.o
 .rodata.cmd_auto_complete.str1.1
                0x0000000000000000       0x14 common/built-in.o
 .rodata.cmd_process.str1.1
                0x0000000000000000       0x3f common/built-in.o
 .rodata.cmd_process_error.str1.1
                0x0000000000000000       0x23 common/built-in.o
 .rodata.cmd_usage.str1.1
                0x0000000000000000       0x36 common/built-in.o
 .rodata.var_complete.str1.1
                0x0000000000000000        0x1 common/built-in.o
 .rodata.srec_decode
                0x0000000000000000        0xa common/built-in.o
 .rodata.CSWTCH.27
                0x0000000000000000       0x40 common/built-in.o
 .rodata.xyzModem_error.str1.1
                0x0000000000000000        0xe common/built-in.o
 .rodata.xyzModem_stream_close.str1.1
                0x0000000000000000       0x4b common/built-in.o
 .rodata.xyzModem_stream_open.str1.1
                0x0000000000000000        0x2 common/built-in.o
 .data          0x0000000000000000        0x0 common/built-in.o
 .data.of_busses
                0x0000000000000000       0x30 common/built-in.o
 .data.load_addr
                0x0000000000000000        0x8 common/built-in.o
 .data.stdio_names
                0x0000000000000000       0x18 common/built-in.o
 .bss           0x0000000000000000        0x0 common/built-in.o
 .bss.msg.8079  0x0000000000000000       0x1e common/built-in.o
 .bss.save_addr
                0x0000000000000000        0x8 common/built-in.o
 .bss.save_size
                0x0000000000000000        0x8 common/built-in.o
 .bss.andr_tmp_str
                0x0000000000000000      0x201 common/built-in.o
 .bss.devs      0x0000000000000000       0x70 common/built-in.o
 .bss.tmp_buf   0x0000000000000000      0x801 common/built-in.o
 .bss.tmp_buf.7416
                0x0000000000000000      0x200 common/built-in.o
 .bss.xyz       0x0000000000000000      0x448 common/built-in.o
 .text          0x0000000000000000        0x0 cmd/built-in.o
 .text._do_env_set.isra.0.constprop.3
                0x0000000000000000      0x1a8 cmd/built-in.o
 .text.get_env_id
                0x0000000000000000        0xc cmd/built-in.o
 .text.env_set  0x0000000000000000       0x54 cmd/built-in.o
 .text.env_set_ulong
                0x0000000000000000       0x2c cmd/built-in.o
 .text.env_set_hex
                0x0000000000000000       0x3c cmd/built-in.o
 .text.eth_parse_enetaddr
                0x0000000000000000       0x70 cmd/built-in.o
 .text.envmatch
                0x0000000000000000       0x7c cmd/built-in.o
 .text.env_get_f
                0x0000000000000000      0x100 cmd/built-in.o
 .text.env_get  0x0000000000000000       0x78 cmd/built-in.o
 .text.env_get_hex
                0x0000000000000000       0x48 cmd/built-in.o
 .text.eth_env_get_enetaddr
                0x0000000000000000       0x6c cmd/built-in.o
 .text.eth_env_set_enetaddr
                0x0000000000000000       0x54 cmd/built-in.o
 .text.env_get_ulong
                0x0000000000000000       0x40 cmd/built-in.o
 .rodata._do_env_set.isra.0.constprop.3.str1.1
                0x0000000000000000       0x7c cmd/built-in.o
 .rodata.env_get_f.str1.1
                0x0000000000000000       0x30 cmd/built-in.o
 .rodata.env_set.str1.1
                0x0000000000000000        0x7 cmd/built-in.o
 .rodata.env_set_hex.str1.1
                0x0000000000000000        0x4 cmd/built-in.o
 .rodata.eth_env_set_enetaddr.str1.1
                0x0000000000000000        0x4 cmd/built-in.o
 .data          0x0000000000000000        0x0 cmd/built-in.o
 .data.env_id   0x0000000000000000        0x4 cmd/built-in.o
 .bss           0x0000000000000000        0x0 cmd/built-in.o
 .comment       0x0000000000000000       0x31 cmd/built-in.o
 .note.GNU-stack
                0x0000000000000000        0x0 cmd/built-in.o
 .debug_aranges
                0x0000000000000000       0xf0 cmd/built-in.o
 .debug_info    0x0000000000000000     0x1c77 cmd/built-in.o
 .debug_abbrev  0x0000000000000000      0x466 cmd/built-in.o
 .debug_line    0x0000000000000000      0x423 cmd/built-in.o
 .debug_frame   0x0000000000000000      0x2c0 cmd/built-in.o
 .debug_str     0x0000000000000000     0x13e6 cmd/built-in.o
 .debug_loc     0x0000000000000000     0x117b cmd/built-in.o
 .debug_ranges  0x0000000000000000      0x1f0 cmd/built-in.o
 .text          0x0000000000000000        0x0 env/built-in.o
 .text.env_get_yesno
                0x0000000000000000       0x4c env/built-in.o
 .text.env_get_default
                0x0000000000000000       0x3c env/built-in.o
 .text.set_default_env
                0x0000000000000000       0x98 env/built-in.o
 .text.set_default_vars
                0x0000000000000000       0x2c env/built-in.o
 .text.env_import
                0x0000000000000000       0xc4 env/built-in.o
 .text.env_export
                0x0000000000000000       0x80 env/built-in.o
 .text.env_relocate
                0x0000000000000000       0x14 env/built-in.o
 .text.env_get_location
                0x0000000000000000       0x18 env/built-in.o
 .text.env_driver_lookup
                0x0000000000000000       0x6c env/built-in.o
 .text.env_get_char_spec
                0x0000000000000000        0xc env/built-in.o
 .text.env_get_char
                0x0000000000000000       0x20 env/built-in.o
 .text.env_load
                0x0000000000000000       0xa8 env/built-in.o
 .text.env_save
                0x0000000000000000       0x94 env/built-in.o
 .text.env_init
                0x0000000000000000       0xa0 env/built-in.o
 .rodata.default_environment
                0x0000000000000000     0x1fd4 env/built-in.o
 .rodata.env_export.str1.1
                0x0000000000000000       0x27 env/built-in.o
 .rodata.env_import.str1.1
                0x0000000000000000       0x3d env/built-in.o
 .rodata.set_default_env.str1.1
                0x0000000000000000       0x5f env/built-in.o
 .rodata.env_load.str1.1
                0x0000000000000000       0x24 env/built-in.o
 .rodata.env_save.str1.1
                0x0000000000000000       0x2a env/built-in.o
 .data          0x0000000000000000        0x0 env/built-in.o
 .data.env_htab
                0x0000000000000000       0x18 env/built-in.o
 .bss           0x0000000000000000        0x0 env/built-in.o
 .text          0x0000000000000000        0x0 lib/built-in.o
 .text.sha1_process
                0x0000000000000000     0x1594 lib/built-in.o
 .text.sha1_update.part.0
                0x0000000000000000      0x108 lib/built-in.o
 .text.sha1_starts
                0x0000000000000000       0x44 lib/built-in.o
 .text.sha1_update
                0x0000000000000000        0xc lib/built-in.o
 .text.sha1_finish
                0x0000000000000000      0x17c lib/built-in.o
 .text.sha1_csum
                0x0000000000000000       0x48 lib/built-in.o
 .text.sha1_csum_wd
                0x0000000000000000       0x48 lib/built-in.o
 .text.sha1_hmac
                0x0000000000000000      0x14c lib/built-in.o
 .text.sha1_self_test
                0x0000000000000000        0x8 lib/built-in.o
 .text.sha256_process
                0x0000000000000000     0x1fa8 lib/built-in.o
 .text.sha256_update.part.0
                0x0000000000000000      0x104 lib/built-in.o
 .text.sha256_starts
                0x0000000000000000       0x68 lib/built-in.o
 .text.sha256_update
                0x0000000000000000        0xc lib/built-in.o
 .text.sha256_finish
                0x0000000000000000      0x1bc lib/built-in.o
 .text.sha256_csum_wd
                0x0000000000000000       0x48 lib/built-in.o
 .text.fdt_move
                0x0000000000000000       0x5c lib/built-in.o
 .text.fdt_setprop_inplace_namelen_partial
                0x0000000000000000       0x6c lib/built-in.o
 .text.fdt_setprop_inplace
                0x0000000000000000       0x8c lib/built-in.o
 .text.fdt_nop_property
                0x0000000000000000       0x48 lib/built-in.o
 .text.fdt_node_end_offset_
                0x0000000000000000       0x4c lib/built-in.o
 .text.fdt_nop_node
                0x0000000000000000       0x68 lib/built-in.o
 .text.fdt_sw_check_header_
                0x0000000000000000       0x1c lib/built-in.o
 .text.fdt_grab_space_
                0x0000000000000000       0x58 lib/built-in.o
 .text.fdt_create
                0x0000000000000000       0x70 lib/built-in.o
 .text.fdt_resize
                0x0000000000000000       0xe0 lib/built-in.o
 .text.fdt_add_reservemap_entry
                0x0000000000000000       0x74 lib/built-in.o
 .text.fdt_finish_reservemap
                0x0000000000000000        0xc lib/built-in.o
 .text.fdt_begin_node
                0x0000000000000000       0x84 lib/built-in.o
 .text.fdt_end_node
                0x0000000000000000       0x44 lib/built-in.o
 .text.fdt_property_placeholder
                0x0000000000000000      0x124 lib/built-in.o
 .text.fdt_property
                0x0000000000000000       0x50 lib/built-in.o
 .text.fdt_finish
                0x0000000000000000      0x10c lib/built-in.o
 .text.fdt_packblocks_
                0x0000000000000000       0xb0 lib/built-in.o
 .text.fdt_set_name
                0x0000000000000000       0xac lib/built-in.o
 .text.fdt_appendprop
                0x0000000000000000       0xf0 lib/built-in.o
 .text.fdt_delprop
                0x0000000000000000       0x74 lib/built-in.o
 .text.fdt_del_node
                0x0000000000000000       0x60 lib/built-in.o
 .text.fdt_open_into
                0x0000000000000000      0x1a0 lib/built-in.o
 .text.fdt_pack
                0x0000000000000000       0x6c lib/built-in.o
 .text.fdt_create_empty_tree
                0x0000000000000000       0x78 lib/built-in.o
 .text.fdt_get_max_phandle
                0x0000000000000000       0x80 lib/built-in.o
 .text.fdt_get_alias
                0x0000000000000000       0x34 lib/built-in.o
 .text.fdt_get_path
                0x0000000000000000      0x16c lib/built-in.o
 .text.fdt_stringlist_count
                0x0000000000000000       0x7c lib/built-in.o
 .text.fdt_stringlist_get
                0x0000000000000000       0xb4 lib/built-in.o
 .text.fdt_node_offset_by_compatible
                0x0000000000000000       0x84 lib/built-in.o
 .text.fdt_add_region
                0x0000000000000000       0x78 lib/built-in.o
 .text.fdt_find_regions
                0x0000000000000000      0x360 lib/built-in.o
 .text.fdt_add_alias_regions
                0x0000000000000000      0x1b0 lib/built-in.o
 .text.fdt_next_region
                0x0000000000000000      0x4d8 lib/built-in.o
 .text.fdt_first_region
                0x0000000000000000       0x30 lib/built-in.o
 .text.fdtdec_get_uint
                0x0000000000000000       0x40 lib/built-in.o
 .text.fdtdec_get_compatible
                0x0000000000000000       0x10 lib/built-in.o
 .text.fdtdec_get_uint64
                0x0000000000000000       0x40 lib/built-in.o
 .text.fdtdec_lookup
                0x0000000000000000       0x68 lib/built-in.o
 .text.fdtdec_next_compatible
                0x0000000000000000       0x10 lib/built-in.o
 .text.fdtdec_next_compatible_subnode
                0x0000000000000000       0x78 lib/built-in.o
 .text.fdtdec_next_alias
                0x0000000000000000       0xac lib/built-in.o
 .text.fdtdec_add_aliases_for_id
                0x0000000000000000      0x244 lib/built-in.o
 .text.fdtdec_find_aliases_for_id
                0x0000000000000000       0x60 lib/built-in.o
 .text.fdtdec_get_alias_highest_id
                0x0000000000000000       0xd4 lib/built-in.o
 .text.fdtdec_check_fdt
                0x0000000000000000       0x18 lib/built-in.o
 .text.fdtdec_lookup_phandle
                0x0000000000000000       0x44 lib/built-in.o
 .text.decode_timing_property
                0x0000000000000000       0x8c lib/built-in.o
 .text.fdtdec_get_int_array_count
                0x0000000000000000       0x68 lib/built-in.o
 .text.fdtdec_locate_array
                0x0000000000000000       0x28 lib/built-in.o
 .text.fdtdec_get_child_count
                0x0000000000000000       0x40 lib/built-in.o
 .text.fdtdec_get_byte_array
                0x0000000000000000       0x48 lib/built-in.o
 .text.fdtdec_locate_byte_array
                0x0000000000000000       0x24 lib/built-in.o
 .text.fdtdec_get_config_int
                0x0000000000000000       0x60 lib/built-in.o
 .text.fdtdec_get_config_bool
                0x0000000000000000       0x54 lib/built-in.o
 .text.fdtdec_get_config_string
                0x0000000000000000       0x4c lib/built-in.o
 .text.fdtdec_get_addr_size_auto_noparent
                0x0000000000000000       0x7c lib/built-in.o
 .text.fdtdec_get_addr
                0x0000000000000000        0x8 lib/built-in.o
 .text.fdt_get_named_resource
                0x0000000000000000       0x64 lib/built-in.o
 .text.fdtdec_decode_display_timing
                0x0000000000000000      0x304 lib/built-in.o
 .text.fdtdec_setup_mem_size_base
                0x0000000000000000       0x60 lib/built-in.o
 .text.fdtdec_decode_ram_size
                0x0000000000000000      0x268 lib/built-in.o
 .text._hdelete.isra.0
                0x0000000000000000       0x64 lib/built-in.o
 .text.drop_var_from_set.part.1
                0x0000000000000000       0x6c lib/built-in.o
 .text.hcreate_r
                0x0000000000000000       0x90 lib/built-in.o
 .text.hdestroy_r
                0x0000000000000000       0x88 lib/built-in.o
 .text.hmatch_r
                0x0000000000000000       0xb8 lib/built-in.o
 .text.hsearch_r
                0x0000000000000000      0x424 lib/built-in.o
 .text.hdelete_r
                0x0000000000000000       0xf4 lib/built-in.o
 .text.himport_r
                0x0000000000000000      0x3c0 lib/built-in.o
 .text.hwalk_r  0x0000000000000000       0x70 lib/built-in.o
 .text.display_options_get_banner_priv
                0x0000000000000000       0xb8 lib/built-in.o
 .text.display_options_get_banner
                0x0000000000000000       0x10 lib/built-in.o
 .text.display_options
                0x0000000000000000       0x34 lib/built-in.o
 .text.print_freq
                0x0000000000000000      0x12c lib/built-in.o
 .text.print_size
                0x0000000000000000       0xf8 lib/built-in.o
 .text.print_buffer
                0x0000000000000000      0x1e8 lib/built-in.o
 .text.crc32_wd
                0x0000000000000000        0x4 lib/built-in.o
 .text.crc32_wd_buf
                0x0000000000000000       0x3c lib/built-in.o
 .text.iter_div_u64_rem
                0x0000000000000000       0x28 lib/built-in.o
 .text.copy_from_user
                0x0000000000000000       0x18 lib/built-in.o
 .text.kmalloc  0x0000000000000000       0x50 lib/built-in.o
 .text.get_mem  0x0000000000000000       0x2c lib/built-in.o
 .text.kmem_cache_alloc
                0x0000000000000000       0x14 lib/built-in.o
 .text.skip_spaces
                0x0000000000000000       0x20 lib/built-in.o
 .text.strim    0x0000000000000000       0x5c lib/built-in.o
 .text.membuff_purge
                0x0000000000000000        0xc lib/built-in.o
 .text.membuff_putraw
                0x0000000000000000       0xa8 lib/built-in.o
 .text.membuff_putbyte
                0x0000000000000000       0x3c lib/built-in.o
 .text.membuff_getraw
                0x0000000000000000       0x84 lib/built-in.o
 .text.membuff_getbyte
                0x0000000000000000       0x3c lib/built-in.o
 .text.membuff_peekbyte
                0x0000000000000000       0x3c lib/built-in.o
 .text.membuff_get
                0x0000000000000000       0x9c lib/built-in.o
 .text.membuff_put
                0x0000000000000000       0x88 lib/built-in.o
 .text.membuff_isempty
                0x0000000000000000       0x10 lib/built-in.o
 .text.membuff_avail
                0x0000000000000000       0x54 lib/built-in.o
 .text.membuff_size
                0x0000000000000000       0x10 lib/built-in.o
 .text.membuff_makecontig
                0x0000000000000000       0xa4 lib/built-in.o
 .text.membuff_free
                0x0000000000000000       0x3c lib/built-in.o
 .text.membuff_readline
                0x0000000000000000       0xa8 lib/built-in.o
 .text.membuff_extend_by
                0x0000000000000000       0xe0 lib/built-in.o
 .text.membuff_init
                0x0000000000000000       0x10 lib/built-in.o
 .text.membuff_new
                0x0000000000000000       0x48 lib/built-in.o
 .text.membuff_uninit
                0x0000000000000000        0xc lib/built-in.o
 .text.membuff_dispose
                0x0000000000000000       0x28 lib/built-in.o
 .text.emit     0x0000000000000000       0x2c lib/built-in.o
 .text.store_char_in_data
                0x0000000000000000       0x30 lib/built-in.o
 .text.get_escape_char
                0x0000000000000000       0x84 lib/built-in.o
 .text.relocate
                0x0000000000000000       0x58 lib/built-in.o
 .text.match    0x0000000000000000      0x3f8 lib/built-in.o
 .text.loop_greedy
                0x0000000000000000       0xb4 lib/built-in.o
 .text.loop_non_greedy
                0x0000000000000000       0xa0 lib/built-in.o
 .text.quantifier
                0x0000000000000000       0xbc lib/built-in.o
 .text.fixup_branch
                0x0000000000000000       0x54 lib/built-in.o
 .text.compile  0x0000000000000000      0x378 lib/built-in.o
 .text.slre_compile
                0x0000000000000000       0xd4 lib/built-in.o
 .text.slre_match
                0x0000000000000000       0x9c lib/built-in.o
 .text.strncpy  0x0000000000000000       0x20 lib/built-in.o
 .text.strcat   0x0000000000000000       0x30 lib/built-in.o
 .text.strncat  0x0000000000000000       0x44 lib/built-in.o
 .text.strchrnul
                0x0000000000000000       0x20 lib/built-in.o
 .text.strcspn  0x0000000000000000       0x38 lib/built-in.o
 .text.strspn   0x0000000000000000       0x38 lib/built-in.o
 .text.strpbrk  0x0000000000000000       0x34 lib/built-in.o
 .text.strtok   0x0000000000000000       0x7c lib/built-in.o
 .text.strsep   0x0000000000000000       0x40 lib/built-in.o
 .text.strswab  0x0000000000000000       0x3c lib/built-in.o
 .text.strlcpy  0x0000000000000000       0x50 lib/built-in.o
 .text.memscan  0x0000000000000000       0x24 lib/built-in.o
 .text.strstr   0x0000000000000000       0x68 lib/built-in.o
 .text.memchr_inv
                0x0000000000000000      0x100 lib/built-in.o
 .text.table_compute_checksum
                0x0000000000000000       0x2c lib/built-in.o
 .text.get_ticks
                0x0000000000000000       0x44 lib/built-in.o
 .text.timer_get_us
                0x0000000000000000       0x38 lib/built-in.o
 .text.print_hex_dump
                0x0000000000000000        0x4 lib/built-in.o
 .text.print_hex_dump_bytes
                0x0000000000000000        0x4 lib/built-in.o
 .text.uuid_str_valid
                0x0000000000000000       0x7c lib/built-in.o
 .text.uuid_str_to_bin
                0x0000000000000000      0x190 lib/built-in.o
 .text.gen_rand_uuid
                0x0000000000000000       0x84 lib/built-in.o
 .text.gen_rand_uuid_str
                0x0000000000000000       0x38 lib/built-in.o
 .text.rand_r   0x0000000000000000       0x1c lib/built-in.o
 .text.rand     0x0000000000000000        0xc lib/built-in.o
 .text.srand    0x0000000000000000        0xc lib/built-in.o
 .text.panic    0x0000000000000000       0x7c lib/built-in.o
 .text.__assert_fail
                0x0000000000000000       0x18 lib/built-in.o
 .text.vsnprintf
                0x0000000000000000       0x50 lib/built-in.o
 .text.scnprintf
                0x0000000000000000       0x74 lib/built-in.o
 .text.vprintf  0x0000000000000000       0x58 lib/built-in.o
 .text.simple_itoa
                0x0000000000000000       0x40 lib/built-in.o
 .text.print_grouped_ull
                0x0000000000000000       0x9c lib/built-in.o
 .text.str2off  0x0000000000000000       0x50 lib/built-in.o
 .text.str2long
                0x0000000000000000       0x50 lib/built-in.o
 .text.strmhz   0x0000000000000000       0x68 lib/built-in.o
 .text.strict_strtoul
                0x0000000000000000       0x88 lib/built-in.o
 .text.simple_strtol
                0x0000000000000000       0x2c lib/built-in.o
 .text.ustrtoul
                0x0000000000000000       0x90 lib/built-in.o
 .text.simple_strtoull
                0x0000000000000000       0x98 lib/built-in.o
 .text.ustrtoull
                0x0000000000000000       0x90 lib/built-in.o
 .rodata.sha1_der_prefix
                0x0000000000000000        0xf lib/built-in.o
 .rodata.sha1_padding
                0x0000000000000000       0x40 lib/built-in.o
 .rodata.sha256_der_prefix
                0x0000000000000000       0x13 lib/built-in.o
 .rodata.fdt_create_empty_tree.str1.1
                0x0000000000000000        0x1 lib/built-in.o
 .rodata.fdt_find_regions
                0x0000000000000000       0x12 lib/built-in.o
 .rodata.fdt_next_region
                0x0000000000000000       0x12 lib/built-in.o
 .rodata.fdt_add_alias_regions.str1.1
                0x0000000000000000        0x8 lib/built-in.o
 .rodata.compat_names
                0x0000000000000000      0x150 lib/built-in.o
 .rodata.fdtdec_decode_display_timing.str1.1
                0x0000000000000000       0xca lib/built-in.o
 .rodata.fdtdec_decode_ram_size.str1.1
                0x0000000000000000       0x21 lib/built-in.o
 .rodata.fdtdec_get_config_int.str1.1
                0x0000000000000000        0x8 lib/built-in.o
 .rodata.fdtdec_next_alias.str1.1
                0x0000000000000000        0x7 lib/built-in.o
 .rodata.himport_r.str1.1
                0x0000000000000000       0x99 lib/built-in.o
 .rodata.display_options.str1.1
                0x0000000000000000        0x3 lib/built-in.o
 .rodata.display_options_get_banner_priv.str1.1
                0x0000000000000000       0x15 lib/built-in.o
 .rodata.names.7527
                0x0000000000000000        0x3 lib/built-in.o
 .rodata.names.7550
                0x0000000000000000        0x6 lib/built-in.o
 .rodata.print_buffer.str1.1
                0x0000000000000000       0x19 lib/built-in.o
 .rodata.print_freq.str1.1
                0x0000000000000000       0x1b lib/built-in.o
 .rodata.print_size.str1.1
                0x0000000000000000       0x15 lib/built-in.o
 .rodata.match  0x0000000000000000       0x22 lib/built-in.o
 .rodata.compile.str1.1
                0x0000000000000000       0x4a lib/built-in.o
 .rodata.emit.str1.1
                0x0000000000000000       0x1f lib/built-in.o
 .rodata.match.str1.1
                0x0000000000000000       0x18 lib/built-in.o
 .rodata.quantifier.str1.1
                0x0000000000000000       0x17 lib/built-in.o
 .rodata.store_char_in_data.str1.1
                0x0000000000000000       0x1f lib/built-in.o
 .rodata.hex_asc_upper
                0x0000000000000000       0x11 lib/built-in.o
 .rodata.__assert_fail.str1.1
                0x0000000000000000       0x22 lib/built-in.o
 .rodata.print_grouped_ull.str1.1
                0x0000000000000000        0xb lib/built-in.o
 .rodata.strmhz.str1.1
                0x0000000000000000        0xb lib/built-in.o
 .data          0x0000000000000000        0x0 lib/built-in.o
 .data.sha256_padding
                0x0000000000000000       0x40 lib/built-in.o
 .data.cur      0x0000000000000000        0x4 lib/built-in.o
 .data.current  0x0000000000000000        0x8 lib/built-in.o
 .data.y        0x0000000000000000        0x4 lib/built-in.o
 .bss           0x0000000000000000        0x0 lib/built-in.o
 .bss.errno     0x0000000000000000        0x4 lib/built-in.o
 .bss.___strtok
                0x0000000000000000        0x8 lib/built-in.o
 .bss.local.8693
                0x0000000000000000       0x16 lib/built-in.o
 .text          0x0000000000000000        0x0 disk/built-in.o
 .text.blk_get_dev
                0x0000000000000000       0x3c disk/built-in.o
 .text.dev_print
                0x0000000000000000      0x1f0 disk/built-in.o
 .text.part_print
                0x0000000000000000      0x138 disk/built-in.o
 .text.part_get_info_whole_disk
                0x0000000000000000       0x5c disk/built-in.o
 .text.blk_get_device_by_str
                0x0000000000000000      0x144 disk/built-in.o
 .text.blk_get_device_part_str
                0x0000000000000000      0x364 disk/built-in.o
 .text.part_get_info_by_name_type
                0x0000000000000000       0x8c disk/built-in.o
 .text.part_get_info_by_name
                0x0000000000000000        0x8 disk/built-in.o
 .text.print_partition_extended
                0x0000000000000000      0x264 disk/built-in.o
 .text.part_print_dos
                0x0000000000000000       0x3c disk/built-in.o
 .text.is_valid_dos_buf
                0x0000000000000000       0x1c disk/built-in.o
 .text.write_mbr_partition
                0x0000000000000000       0x80 disk/built-in.o
 .text.get_disk_guid
                0x0000000000000000       0xec disk/built-in.o
 .text.part_print_efi
                0x0000000000000000      0x278 disk/built-in.o
 .text.write_gpt_table
                0x0000000000000000      0x4fc disk/built-in.o
 .text.gpt_fill_pte
                0x0000000000000000      0x3a4 disk/built-in.o
 .text.gpt_fill_header
                0x0000000000000000      0x250 disk/built-in.o
 .text.gpt_restore
                0x0000000000000000      0x150 disk/built-in.o
 .text.gpt_verify_headers
                0x0000000000000000       0x98 disk/built-in.o
 .text.gpt_verify_partitions
                0x0000000000000000      0x1f4 disk/built-in.o
 .text.is_valid_gpt_buf
                0x0000000000000000       0x9c disk/built-in.o
 .text.write_mbr_and_gpt_partitions
                0x0000000000000000      0x46c disk/built-in.o
 .rodata.dev_print
                0x0000000000000000       0x18 disk/built-in.o
 .rodata.part_print
                0x0000000000000000        0xc disk/built-in.o
 .rodata.blk_get_device_by_str.str1.1
                0x0000000000000000       0x52 disk/built-in.o
 .rodata.blk_get_device_part_str.str1.1
                0x0000000000000000      0x109 disk/built-in.o
 .rodata.dev_print.str1.1
                0x0000000000000000      0x176 disk/built-in.o
 .rodata.part_get_info_whole_disk.str1.1
                0x0000000000000000       0x12 disk/built-in.o
 .rodata.part_print.str1.1
                0x0000000000000000       0x97 disk/built-in.o
 .rodata.__func__.7473
                0x0000000000000000       0x14 disk/built-in.o
 .rodata.part_print_dos.str1.1
                0x0000000000000000       0x2a disk/built-in.o
 .rodata.write_mbr_partition.str1.1
                0x0000000000000000       0x2d disk/built-in.o
 .rodata.__func__.8156
                0x0000000000000000        0xe disk/built-in.o
 .rodata.__func__.8166
                0x0000000000000000        0xf disk/built-in.o
 .rodata.__func__.8189
                0x0000000000000000       0x13 disk/built-in.o
 .rodata.__func__.8251
                0x0000000000000000        0xc disk/built-in.o
 .rodata.__func__.8269
                0x0000000000000000       0x13 disk/built-in.o
 .rodata.__func__.8302
                0x0000000000000000       0x1d disk/built-in.o
 .rodata.gpt_fill_header.str1.1
                0x0000000000000000       0x24 disk/built-in.o
 .rodata.gpt_fill_pte.str1.1
                0x0000000000000000       0x5b disk/built-in.o
 .rodata.gpt_verify_partitions.str1.1
                0x0000000000000000       0xa3 disk/built-in.o
 .rodata.part_print_efi.str1.1
                0x0000000000000000       0x8d disk/built-in.o
 .rodata.partition_basic_data_guid
                0x0000000000000000       0x10 disk/built-in.o
 .rodata.write_gpt_table.str1.1
                0x0000000000000000       0x55 disk/built-in.o
 .rodata.write_mbr_and_gpt_partitions.str1.1
                0x0000000000000000       0x7c disk/built-in.o
 .data          0x0000000000000000        0x0 disk/built-in.o
 .bss           0x0000000000000000        0x0 disk/built-in.o
 .text          0x0000000000000000        0x0 drivers/built-in.o
 .text.clk_free
                0x0000000000000000       0x20 drivers/built-in.o
 .text.clk_enable_bulk
                0x0000000000000000       0x60 drivers/built-in.o
 .text.clk_disable
                0x0000000000000000       0x20 drivers/built-in.o
 .text.clk_release_all
                0x0000000000000000       0x7c drivers/built-in.o
 .text.clk_get_bulk
                0x0000000000000000       0xcc drivers/built-in.o
 .text.clk_disable_bulk
                0x0000000000000000       0x60 drivers/built-in.o
 .text.soc_clk_dump
                0x0000000000000000       0xf0 drivers/built-in.o
 .text._device_find_global_by_ofnode
                0x0000000000000000       0x68 drivers/built-in.o
 .text.device_bind
                0x0000000000000000       0x10 drivers/built-in.o
 .text.device_bind_ofnode
                0x0000000000000000       0x10 drivers/built-in.o
 .text.device_get_child
                0x0000000000000000       0x5c drivers/built-in.o
 .text.device_find_child_by_seq
                0x0000000000000000       0x58 drivers/built-in.o
 .text.device_get_child_by_seq
                0x0000000000000000       0x60 drivers/built-in.o
 .text.device_find_child_by_of_offset
                0x0000000000000000       0x44 drivers/built-in.o
 .text.device_get_child_by_of_offset
                0x0000000000000000       0x40 drivers/built-in.o
 .text.device_find_global_by_ofnode
                0x0000000000000000       0x34 drivers/built-in.o
 .text.device_get_global_by_ofnode
                0x0000000000000000       0x48 drivers/built-in.o
 .text.device_find_next_child
                0x0000000000000000       0x28 drivers/built-in.o
 .text.device_find_first_inactive_child
                0x0000000000000000       0x54 drivers/built-in.o
 .text.device_find_first_child_by_uclass
                0x0000000000000000       0x4c drivers/built-in.o
 .text.device_find_child_by_name
                0x0000000000000000       0x68 drivers/built-in.o
 .text.dev_get_driver_data
                0x0000000000000000        0x8 drivers/built-in.o
 .text.dev_get_driver_ops
                0x0000000000000000       0x18 drivers/built-in.o
 .text.dev_get_uclass_name
                0x0000000000000000       0x1c drivers/built-in.o
 .text.device_has_children
                0x0000000000000000       0x14 drivers/built-in.o
 .text.device_has_active_children
                0x0000000000000000       0x3c drivers/built-in.o
 .text.device_is_last_sibling
                0x0000000000000000       0x24 drivers/built-in.o
 .text.device_set_name
                0x0000000000000000       0x44 drivers/built-in.o
 .text.device_is_compatible
                0x0000000000000000       0x20 drivers/built-in.o
 .text.of_machine_is_compatible
                0x0000000000000000       0x2c drivers/built-in.o
 .text.dev_disable_by_path
                0x0000000000000000       0x18 drivers/built-in.o
 .text.dev_enable_by_path
                0x0000000000000000       0x1c drivers/built-in.o
 .text.devfdt_get_addr_size_index
                0x0000000000000000       0x48 drivers/built-in.o
 .text.devfdt_get_addr_name
                0x0000000000000000       0x50 drivers/built-in.o
 .text.devfdt_get_addr_ptr
                0x0000000000000000        0x8 drivers/built-in.o
 .text.devfdt_remap_addr_index
                0x0000000000000000       0x20 drivers/built-in.o
 .text.devfdt_remap_addr_name
                0x0000000000000000       0x20 drivers/built-in.o
 .text.devfdt_remap_addr
                0x0000000000000000        0x8 drivers/built-in.o
 .text.devfdt_map_physmem
                0x0000000000000000       0x20 drivers/built-in.o
 .text.dm_fixup_for_gd_move
                0x0000000000000000       0x20 drivers/built-in.o
 .text.dm_set_translation_offset
                0x0000000000000000       0x28 drivers/built-in.o
 .text.dm_uninit
                0x0000000000000000       0x20 drivers/built-in.o
 .text.uclass_destroy
                0x0000000000000000       0x68 drivers/built-in.o
 .text.uclass_get_name
                0x0000000000000000       0x30 drivers/built-in.o
 .text.uclass_get_by_name
                0x0000000000000000       0x54 drivers/built-in.o
 .text.dev_get_uclass_index
                0x0000000000000000       0x58 drivers/built-in.o
 .text.uclass_find_next_device
                0x0000000000000000       0x2c drivers/built-in.o
 .text.uclass_find_device_by_name
                0x0000000000000000       0x98 drivers/built-in.o
 .text.uclass_find_device_by_phandle
                0x0000000000000000       0xb4 drivers/built-in.o
 .text.uclass_get_device_by_driver
                0x0000000000000000       0x7c drivers/built-in.o
 .text.uclass_get_device_by_name
                0x0000000000000000       0x38 drivers/built-in.o
 .text.uclass_get_device_by_phandle_id
                0x0000000000000000       0x90 drivers/built-in.o
 .text.uclass_get_device_by_phandle
                0x0000000000000000       0x38 drivers/built-in.o
 .text.uclass_first_device_err
                0x0000000000000000       0x34 drivers/built-in.o
 .text.uclass_next_device
                0x0000000000000000       0x44 drivers/built-in.o
 .text.uclass_next_device_err
                0x0000000000000000       0x34 drivers/built-in.o
 .text.uclass_first_device_check
                0x0000000000000000       0x40 drivers/built-in.o
 .text.uclass_next_device_check
                0x0000000000000000       0x30 drivers/built-in.o
 .text.list_count_items
                0x0000000000000000       0x28 drivers/built-in.o
 .text.dm_fdt_pre_reloc
                0x0000000000000000       0x5c drivers/built-in.o
 .text.show_devices
                0x0000000000000000      0x134 drivers/built-in.o
 .text.dm_dump_all
                0x0000000000000000       0x54 drivers/built-in.o
 .text.dm_dump_uclass
                0x0000000000000000      0x120 drivers/built-in.o
 .text.ofnode_read_fmap_entry
                0x0000000000000000      0x104 drivers/built-in.o
 .text.ofnode_decode_region
                0x0000000000000000       0x5c drivers/built-in.o
 .text.ofnode_decode_memory_region
                0x0000000000000000      0x118 drivers/built-in.o
 .text.ofnode_read_s32_default
                0x0000000000000000       0x24 drivers/built-in.o
 .text.ofnode_read_u64
                0x0000000000000000       0x5c drivers/built-in.o
 .text.ofnode_read_u64_default
                0x0000000000000000       0x24 drivers/built-in.o
 .text.ofnode_read_string
                0x0000000000000000       0x60 drivers/built-in.o
 .text.ofnode_find_subnode
                0x0000000000000000       0x28 drivers/built-in.o
 .text.ofnode_first_subnode
                0x0000000000000000       0x24 drivers/built-in.o
 .text.ofnode_next_subnode
                0x0000000000000000       0x24 drivers/built-in.o
 .text.ofnode_get_parent
                0x0000000000000000       0x24 drivers/built-in.o
 .text.ofnode_get_by_phandle
                0x0000000000000000       0x24 drivers/built-in.o
 .text.decode_timing_property
                0x0000000000000000       0x78 drivers/built-in.o
 .text.ofnode_read_string_index
                0x0000000000000000       0x4c drivers/built-in.o
 .text.ofnode_read_string_count
                0x0000000000000000       0x14 drivers/built-in.o
 .text.ofnode_get_chosen_prop
                0x0000000000000000       0x2c drivers/built-in.o
 .text.ofnode_get_chosen_node
                0x0000000000000000       0x24 drivers/built-in.o
 .text.ofnode_decode_display_timing
                0x0000000000000000      0x2e8 drivers/built-in.o
 .text.ofnode_is_available
                0x0000000000000000       0x28 drivers/built-in.o
 .text.ofnode_read_u8_array_ptr
                0x0000000000000000       0x18 drivers/built-in.o
 .text.ofnode_read_pci_addr
                0x0000000000000000       0xac drivers/built-in.o
 .text.ofnode_read_pci_vendev
                0x0000000000000000      0x104 drivers/built-in.o
 .text.ofnode_read_addr_cells
                0x0000000000000000       0x10 drivers/built-in.o
 .text.ofnode_read_size_cells
                0x0000000000000000       0x10 drivers/built-in.o
 .text.ofnode_get_addr_index
                0x0000000000000000       0x6c drivers/built-in.o
 .text.ofnode_get_addr
                0x0000000000000000        0x8 drivers/built-in.o
 .text.ofnode_read_simple_addr_cells
                0x0000000000000000        0x4 drivers/built-in.o
 .text.ofnode_read_simple_size_cells
                0x0000000000000000        0x4 drivers/built-in.o
 .text.ofnode_pre_reloc
                0x0000000000000000       0x64 drivers/built-in.o
 .text.ofnode_read_resource
                0x0000000000000000       0x6c drivers/built-in.o
 .text.ofnode_read_resource_byname
                0x0000000000000000       0x4c drivers/built-in.o
 .text.ofnode_translate_address
                0x0000000000000000       0x14 drivers/built-in.o
 .text.ofnode_by_compatible
                0x0000000000000000       0x28 drivers/built-in.o
 .text.ofnode_by_prop_value
                0x0000000000000000       0x30 drivers/built-in.o
 .text.ofnode_write_prop
                0x0000000000000000        0x8 drivers/built-in.o
 .text.ofnode_write_string
                0x0000000000000000        0x8 drivers/built-in.o
 .text.ofnode_set_enabled
                0x0000000000000000        0x8 drivers/built-in.o
 .text.misc_read
                0x0000000000000000       0x1c drivers/built-in.o
 .text.misc_write
                0x0000000000000000       0x1c drivers/built-in.o
 .text.misc_ioctl
                0x0000000000000000       0x1c drivers/built-in.o
 .text.misc_call
                0x0000000000000000       0x1c drivers/built-in.o
 .text.misc_set_enabled
                0x0000000000000000       0x20 drivers/built-in.o
 .text.mmc_set_dsr
                0x0000000000000000       0x10 drivers/built-in.o
 .text.cpu_mmc_init
                0x0000000000000000        0x8 drivers/built-in.o
 .text.board_mmc_init
                0x0000000000000000        0x8 drivers/built-in.o
 .text.mmc_set_preinit
                0x0000000000000000        0x8 drivers/built-in.o
 .text.dm_mmc_get_wp
                0x0000000000000000       0x1c drivers/built-in.o
 .text.mmc_getwp
                0x0000000000000000        0x8 drivers/built-in.o
 .text.mmc_of_parse
                0x0000000000000000      0x27c drivers/built-in.o
 .text.get_mmc_num
                0x0000000000000000       0x20 drivers/built-in.o
 .text.mmc_get_next_devnum
                0x0000000000000000        0x8 drivers/built-in.o
 .text.print_mmc_devices
                0x0000000000000000       0xfc drivers/built-in.o
 .text.mmc_unbind
                0x0000000000000000       0x1c drivers/built-in.o
 .text.mmc_boot_partition_size_change
                0x0000000000000000       0xc0 drivers/built-in.o
 .text.mmc_set_boot_bus_width
                0x0000000000000000       0x20 drivers/built-in.o
 .text.mmc_set_part_conf
                0x0000000000000000       0x4c drivers/built-in.o
 .text.mmc_set_rst_n_function
                0x0000000000000000       0x10 drivers/built-in.o
 .text.serial_initialize
                0x0000000000000000        0x4 drivers/built-in.o
 .text.serial_setbrg
                0x0000000000000000       0x2c drivers/built-in.o
 .text.serial_getconfig
                0x0000000000000000       0x30 drivers/built-in.o
 .text.serial_setconfig
                0x0000000000000000       0x30 drivers/built-in.o
 .text.serial_getinfo
                0x0000000000000000       0x44 drivers/built-in.o
 .text.serial_stdio_init
                0x0000000000000000        0x4 drivers/built-in.o
 .text.printhex2
                0x0000000000000000       0x64 drivers/built-in.o
 .text.printhex4
                0x0000000000000000       0x50 drivers/built-in.o
 .text.printhex8
                0x0000000000000000       0x50 drivers/built-in.o
 .text.spi_flash_read_dm
                0x0000000000000000       0x10 drivers/built-in.o
 .text.spi_flash_write_dm
                0x0000000000000000       0x10 drivers/built-in.o
 .text.spi_flash_erase_dm
                0x0000000000000000       0x10 drivers/built-in.o
 .text.spl_flash_get_sw_write_prot
                0x0000000000000000       0x1c drivers/built-in.o
 .text.spi_flash_free
                0x0000000000000000        0x4 drivers/built-in.o
 .text.spi_flash_probe_bus_cs
                0x0000000000000000       0x98 drivers/built-in.o
 .text.spi_flash_probe
                0x0000000000000000       0x2c drivers/built-in.o
 .text.spi_chip_select
                0x0000000000000000       0x24 drivers/built-in.o
 .text.spi_find_chip_select
                0x0000000000000000       0x60 drivers/built-in.o
 .text.spi_cs_info
                0x0000000000000000       0x78 drivers/built-in.o
 .text.spi_cs_is_valid
                0x0000000000000000       0x44 drivers/built-in.o
 .text.spi_find_bus_and_cs
                0x0000000000000000       0x68 drivers/built-in.o
 .text.spi_get_bus_and_cs
                0x0000000000000000      0x188 drivers/built-in.o
 .text.spi_setup_slave
                0x0000000000000000       0x30 drivers/built-in.o
 .text.spi_free_slave
                0x0000000000000000        0x8 drivers/built-in.o
 .text.get_desc
                0x0000000000000000       0xd0 drivers/built-in.o
 .text.blk_get_if_type_name
                0x0000000000000000       0x10 drivers/built-in.o
 .text.blk_get_devnum_by_typename
                0x0000000000000000       0xf4 drivers/built-in.o
 .text.blk_get_by_device
                0x0000000000000000       0x74 drivers/built-in.o
 .text.blk_list_part
                0x0000000000000000       0x7c drivers/built-in.o
 .text.blk_print_part_devnum
                0x0000000000000000       0x48 drivers/built-in.o
 .text.blk_list_devices
                0x0000000000000000       0x78 drivers/built-in.o
 .text.blk_print_device_num
                0x0000000000000000       0x48 drivers/built-in.o
 .text.blk_show_device
                0x0000000000000000       0x7c drivers/built-in.o
 .text.blk_first_device
                0x0000000000000000       0x70 drivers/built-in.o
 .text.blk_next_device
                0x0000000000000000       0x64 drivers/built-in.o
 .text.blk_get_device
                0x0000000000000000       0x34 drivers/built-in.o
 .text.blk_get_devnum_by_type
                0x0000000000000000       0x2c drivers/built-in.o
 .text.blk_select_hwpart_devnum
                0x0000000000000000       0x34 drivers/built-in.o
 .text.blk_read_devnum
                0x0000000000000000       0x54 drivers/built-in.o
 .text.blk_write_devnum
                0x0000000000000000       0x54 drivers/built-in.o
 .text.blk_derase
                0x0000000000000000       0x20 drivers/built-in.o
 .text.blk_get_from_parent
                0x0000000000000000       0x5c drivers/built-in.o
 .text.blk_unbind_all
                0x0000000000000000       0x68 drivers/built-in.o
 .rodata.clk_names
                0x0000000000000000      0x260 drivers/built-in.o
 .rodata.soc_clk_dump.str1.1
                0x0000000000000000       0x2d drivers/built-in.o
 .rodata.devfdt_get_addr_name.str1.1
                0x0000000000000000        0xa drivers/built-in.o
 .rodata.dm_dump_all.str1.1
                0x0000000000000000       0x72 drivers/built-in.o
 .rodata.dm_dump_uclass.str1.1
                0x0000000000000000       0x35 drivers/built-in.o
 .rodata.show_devices.str1.1
                0x0000000000000000       0x3b drivers/built-in.o
 .rodata.ofnode_decode_memory_region.str1.1
                0x0000000000000000       0x2d drivers/built-in.o
 .rodata.ofnode_read_fmap_entry.str1.1
                0x0000000000000000       0x32 drivers/built-in.o
 .rodata.ofnode_decode_display_timing.str1.1
                0x0000000000000000       0xca drivers/built-in.o
 .rodata.ofnode_get_addr_index.str1.1
                0x0000000000000000        0x4 drivers/built-in.o
 .rodata.ofnode_get_chosen_prop.str1.1
                0x0000000000000000        0x8 drivers/built-in.o
 .rodata.ofnode_pre_reloc.str1.1
                0x0000000000000000       0x37 drivers/built-in.o
 .rodata.ofnode_read_pci_vendev.str1.1
                0x0000000000000000       0x1c drivers/built-in.o
 .rodata.ofnode_read_resource_byname.str1.1
                0x0000000000000000        0xa drivers/built-in.o
 .rodata.mmc_of_parse.str1.1
                0x0000000000000000       0xf2 drivers/built-in.o
 .rodata.print_mmc_devices.str1.1
                0x0000000000000000       0x1c drivers/built-in.o
 .rodata.spi_flash_probe_bus_cs.str1.1
                0x0000000000000000       0x1e drivers/built-in.o
 .rodata.spi_get_bus_and_cs.str1.1
                0x0000000000000000       0x64 drivers/built-in.o
 .rodata.blk_list_devices.str1.1
                0x0000000000000000        0xc drivers/built-in.o
 .rodata.blk_print_device_num.str1.1
                0x0000000000000000       0x11 drivers/built-in.o
 .rodata.blk_show_device.str1.1
                0x0000000000000000       0x1d drivers/built-in.o
 .rodata.if_type_uclass_id
                0x0000000000000000       0x34 drivers/built-in.o
 .rodata.if_typename_str
                0x0000000000000000       0x68 drivers/built-in.o
 .data          0x0000000000000000        0x0 drivers/built-in.o
 .bss           0x0000000000000000        0x0 drivers/built-in.o
 .text          0x0000000000000000        0x0 fs/built-in.o
 .text.split_filename
                0x0000000000000000       0xf4 fs/built-in.o
 .text.set_fatent_value
                0x0000000000000000      0x210 fs/built-in.o
 .text.determine_fatent
                0x0000000000000000       0x58 fs/built-in.o
 .text.clear_fatent
                0x0000000000000000       0x9c fs/built-in.o
 .text.set_cluster
                0x0000000000000000      0x180 fs/built-in.o
 .text.set_contents
                0x0000000000000000      0x7f0 fs/built-in.o
 .text.normalize_longname
                0x0000000000000000       0xf8 fs/built-in.o
 .text.set_name
                0x0000000000000000      0x164 fs/built-in.o
 .text.flush_dir_table
                0x0000000000000000      0x114 fs/built-in.o
 .text.fill_dir_slot
                0x0000000000000000      0x2e4 fs/built-in.o
 .text.find_directory_entry
                0x0000000000000000       0xa0 fs/built-in.o
 .text.file_fat_detectfs
                0x0000000000000000      0x140 fs/built-in.o
 .text.fat_exists
                0x0000000000000000       0x80 fs/built-in.o
 .text.fat_size
                0x0000000000000000       0xc4 fs/built-in.o
 .text.fat_opendir
                0x0000000000000000       0xac fs/built-in.o
 .text.fat_readdir
                0x0000000000000000       0x8c fs/built-in.o
 .text.fat_closedir
                0x0000000000000000       0x28 fs/built-in.o
 .text.fat_close
                0x0000000000000000        0x4 fs/built-in.o
 .text.file_fat_write_at
                0x0000000000000000      0x2a4 fs/built-in.o
 .text.file_fat_write
                0x0000000000000000       0x10 fs/built-in.o
 .text.fat_unlink
                0x0000000000000000      0x2b0 fs/built-in.o
 .text.fat_mkdir
                0x0000000000000000      0x3b0 fs/built-in.o
 .text.fs_devread
                0x0000000000000000      0x250 fs/built-in.o
 .rodata.file_fat_detectfs
                0x0000000000000000        0x8 fs/built-in.o
 .rodata.fat_mkdir.str1.1
                0x0000000000000000       0x2a fs/built-in.o
 .rodata.fat_unlink.str1.1
                0x0000000000000000       0x6c fs/built-in.o
 .rodata.file_fat_detectfs.str1.1
                0x0000000000000000       0x84 fs/built-in.o
 .rodata.file_fat_write_at.str1.1
                0x0000000000000000       0xa7 fs/built-in.o
 .rodata.flush_dir_table.str1.1
                0x0000000000000000       0x20 fs/built-in.o
 .rodata.set_contents.str1.1
                0x0000000000000000       0x3b fs/built-in.o
 .rodata.split_filename.str1.1
                0x0000000000000000        0x2 fs/built-in.o
 .rodata.__func__.7389
                0x0000000000000000        0xb fs/built-in.o
 .rodata.fs_devread.str1.1
                0x0000000000000000       0x98 fs/built-in.o
 .data          0x0000000000000000        0x0 fs/built-in.o
 .bss           0x0000000000000000        0x0 fs/built-in.o
 .bss.tmpbuf_cluster
                0x0000000000000000    0x10000 fs/built-in.o

Memory Configuration

Name             Origin             Length             Attributes
.sram            0x00000000fffc0000 0x0000000000040000
.sdram           0x0000000000000000 0x0000000000080000
*default*        0x0000000000000000 0xffffffffffffffff

Linker script and memory map


.text           0x00000000fffc0000    0x15240
                0x00000000fffc0000                . = ALIGN (0x8)
 *(.__image_copy_start)
 arch/arm/cpu/armv8/start.o(.text*)
 .text          0x00000000fffc0000      0x110 arch/arm/cpu/armv8/start.o
                0x00000000fffc0000                _start
                0x00000000fffc0008                _TEXT_BASE
                0x00000000fffc0010                _end_ofs
                0x00000000fffc0018                _bss_start_ofs
                0x00000000fffc0020                _bss_end_ofs
                0x00000000fffc002c                save_boot_params_ret
                0x00000000fffc0084                apply_core_errata
                0x00000000fffc00c0                lowlevel_init
                0x00000000fffc00e0                smp_kick_all_cpus
                0x00000000fffc00ec                c_runtime_cpu_setup
                0x00000000fffc00f0                save_boot_params
 *(.text*)
 .text.zynqmp_get_system_timer_freq
                0x00000000fffc0110       0x2c arch/arm/mach-zynqmp/built-in.o
                0x00000000fffc0110                zynqmp_get_system_timer_freq
 .text.mem_map_fill
                0x00000000fffc013c       0x90 arch/arm/mach-zynqmp/built-in.o
                0x00000000fffc013c                mem_map_fill
 .text.zynqmp_get_silicon_version
                0x00000000fffc01cc       0x64 arch/arm/mach-zynqmp/built-in.o
                0x00000000fffc01cc                zynqmp_get_silicon_version
 .text.zynqmp_mmio_write
                0x00000000fffc0230       0x28 arch/arm/mach-zynqmp/built-in.o
                0x00000000fffc0230                zynqmp_mmio_write
 .text.zynqmp_mmio_read
                0x00000000fffc0258       0x24 arch/arm/mach-zynqmp/built-in.o
                0x00000000fffc0258                zynqmp_mmio_read
 .text.board_init_f
                0x00000000fffc027c       0x54 arch/arm/mach-zynqmp/built-in.o
                0x00000000fffc027c                board_init_f
 .text.spl_board_init
                0x00000000fffc02d0       0x44 arch/arm/mach-zynqmp/built-in.o
                0x00000000fffc02d0                spl_board_init
 .text.spl_boot_device
                0x00000000fffc0314       0x7c arch/arm/mach-zynqmp/built-in.o
                0x00000000fffc0314                spl_boot_device
 .text.spl_start_uboot
                0x00000000fffc0390       0x18 arch/arm/mach-zynqmp/built-in.o
                0x00000000fffc0390                spl_start_uboot
 .text.board_fit_config_name_match
                0x00000000fffc03a8        0x8 arch/arm/mach-zynqmp/built-in.o
                0x00000000fffc03a8                board_fit_config_name_match
 .text.handoff_setup
                0x00000000fffc03b0       0x3c arch/arm/mach-zynqmp/built-in.o
                0x00000000fffc03b0                handoff_setup
 .text.mask_poll
                0x00000000fffc03ec       0x30 arch/arm/mach-zynqmp/built-in.o
                0x00000000fffc03ec                mask_poll
 .text.mask_read
                0x00000000fffc041c       0x10 arch/arm/mach-zynqmp/built-in.o
                0x00000000fffc041c                mask_read
 .text.psu_mask_write
                0x00000000fffc042c       0x28 arch/arm/mach-zynqmp/built-in.o
                0x00000000fffc042c                psu_mask_write
 .text.prog_reg
                0x00000000fffc0454       0x20 arch/arm/mach-zynqmp/built-in.o
                0x00000000fffc0454                prog_reg
 .text.cleanup_before_linux
                0x00000000fffc0474       0x28 arch/arm/cpu/armv8/built-in.o
                0x00000000fffc0474                cleanup_before_linux
 .text.get_tbclk
                0x00000000fffc049c        0x8 arch/arm/cpu/armv8/built-in.o
                0x00000000fffc049c                get_tbclk
 .text.get_ticks
                0x00000000fffc04a4       0x10 arch/arm/cpu/armv8/built-in.o
                0x00000000fffc04a4                get_ticks
 .text.invalidate_dcache_all
                0x00000000fffc04b4       0x14 arch/arm/cpu/armv8/built-in.o
                0x00000000fffc04b4                invalidate_dcache_all
 .text.flush_dcache_range
                0x00000000fffc04c8        0x4 arch/arm/cpu/armv8/built-in.o
                0x00000000fffc04c8                flush_dcache_range
 .text.dcache_disable
                0x00000000fffc04cc       0x84 arch/arm/cpu/armv8/built-in.o
                0x00000000fffc04cc                dcache_disable
 .text.icache_disable
                0x00000000fffc0550       0x64 arch/arm/cpu/armv8/built-in.o
                0x00000000fffc0550                icache_disable
 .text.invalidate_icache_all
                0x00000000fffc05b4       0x14 arch/arm/cpu/armv8/built-in.o
                0x00000000fffc05b4                invalidate_icache_all
 .text.__asm_dcache_level
                0x00000000fffc05c8       0x64 arch/arm/cpu/armv8/built-in.o
                0x00000000fffc05c8                __asm_dcache_level
 .text.__asm_dcache_all
                0x00000000fffc062c       0x60 arch/arm/cpu/armv8/built-in.o
                0x00000000fffc062c                __asm_dcache_all
 .text.__asm_flush_dcache_all
                0x00000000fffc068c        0x8 arch/arm/cpu/armv8/built-in.o
                0x00000000fffc068c                __asm_flush_dcache_all
 .text.__asm_invalidate_dcache_all
                0x00000000fffc0694        0x8 arch/arm/cpu/armv8/built-in.o
                0x00000000fffc0694                __asm_invalidate_dcache_all
 .text.__asm_flush_dcache_range
                0x00000000fffc069c       0x34 arch/arm/cpu/armv8/built-in.o
                0x00000000fffc069c                __asm_flush_dcache_range
 .text.__asm_invalidate_icache_all
                0x00000000fffc06d0        0xc arch/arm/cpu/armv8/built-in.o
                0x00000000fffc06d0                __asm_invalidate_icache_all
 .text.__asm_invalidate_l3_dcache
                0x00000000fffc06dc        0x8 arch/arm/cpu/armv8/built-in.o
                0x00000000fffc06dc                __asm_invalidate_l3_dcache
 .text.__asm_flush_l3_dcache
                0x00000000fffc06e4        0x8 arch/arm/cpu/armv8/built-in.o
                0x00000000fffc06e4                __asm_flush_l3_dcache
 .text.__asm_invalidate_l3_icache
                0x00000000fffc06ec        0x8 arch/arm/cpu/armv8/built-in.o
                0x00000000fffc06ec                __asm_invalidate_l3_icache
 .text.__asm_invalidate_tlb_all
                0x00000000fffc06f4       0x4c arch/arm/cpu/armv8/built-in.o
                0x00000000fffc06f4                __asm_invalidate_tlb_all
 .text.armv8_switch_to_el2
                0x00000000fffc0740       0xb8 arch/arm/cpu/armv8/built-in.o
                0x00000000fffc0740                armv8_switch_to_el2
 .text.armv8_el2_to_aarch32
                0x00000000fffc07f8        0x4 arch/arm/cpu/armv8/built-in.o
                0x00000000fffc07f8                armv8_el2_to_aarch32
 *fill*         0x00000000fffc07fc        0x4 
 .text          0x00000000fffc0800      0x110 arch/arm/lib/built-in.o
                0x00000000fffc0800                _main
                0x00000000fffc0878                gic_init_secure
                0x00000000fffc08bc                gic_init_secure_percpu
                0x00000000fffc08e0                gic_kick_secondary_cpus
                0x00000000fffc08f0                gic_wait_for_interrupt
 .text.jump_to_image_linux
                0x00000000fffc0910       0x30 arch/arm/lib/built-in.o
                0x00000000fffc0910                jump_to_image_linux
 .text.bootz_setup
                0x00000000fffc0940       0x7c arch/arm/lib/built-in.o
                0x00000000fffc0940                bootz_setup
 .text.arch_fixup_fdt
                0x00000000fffc09bc       0x4c arch/arm/lib/built-in.o
                0x00000000fffc09bc                arch_fixup_fdt
 .text.disable_interrupts
                0x00000000fffc0a08        0x8 arch/arm/lib/built-in.o
                0x00000000fffc0a08                disable_interrupts
 .text.board_early_init_f
                0x00000000fffc0a10        0x4 board/xilinx/zynqmp/built-in.o
                0x00000000fffc0a10                board_early_init_f
 .text.board_init
                0x00000000fffc0a14       0x28 board/xilinx/zynqmp/built-in.o
                0x00000000fffc0a14                board_init
 .text.board_early_init_r
                0x00000000fffc0a3c       0x78 board/xilinx/zynqmp/built-in.o
                0x00000000fffc0a3c                board_early_init_r
 .text.dram_init_banksize
                0x00000000fffc0ab4       0x2c board/xilinx/zynqmp/built-in.o
                0x00000000fffc0ab4                dram_init_banksize
 .text.psu_init
                0x00000000fffc0ae0     0x362c board/xilinx/zynqmp/built-in.o
                0x00000000fffc0ae0                psu_init
 .text.zynqmp_dll_reset
                0x00000000fffc410c       0x60 board/xilinx/zynqmp/built-in.o
                0x00000000fffc410c                zynqmp_dll_reset
 .text.arasan_zynqmp_set_tapdelay
                0x00000000fffc416c      0x144 board/xilinx/zynqmp/built-in.o
                0x00000000fffc416c                arasan_zynqmp_set_tapdelay
 .text.show_boot_progress
                0x00000000fffc42b0        0x4 common/spl/built-in.o
                0x00000000fffc42b0                show_boot_progress
 .text.spl_common_init.constprop.4
                0x00000000fffc42b4       0x38 common/spl/built-in.o
 .text.spl_perform_fixups
                0x00000000fffc42ec        0x4 common/spl/built-in.o
                0x00000000fffc42ec                spl_perform_fixups
 .text.spl_fixup_fdt
                0x00000000fffc42f0       0x74 common/spl/built-in.o
                0x00000000fffc42f0                spl_fixup_fdt
 .text.spl_board_prepare_for_linux
                0x00000000fffc4364        0x4 common/spl/built-in.o
                0x00000000fffc4364                spl_board_prepare_for_linux
 .text.spl_board_prepare_for_boot
                0x00000000fffc4368        0x4 common/spl/built-in.o
                0x00000000fffc4368                spl_board_prepare_for_boot
 .text.spl_get_load_buffer
                0x00000000fffc436c        0xc common/spl/built-in.o
                0x00000000fffc436c                spl_get_load_buffer
 .text.spl_set_header_raw_uboot
                0x00000000fffc4378       0x2c common/spl/built-in.o
                0x00000000fffc4378                spl_set_header_raw_uboot
 .text.spl_parse_image_header
                0x00000000fffc43a4       0xdc common/spl/built-in.o
                0x00000000fffc43a4                spl_parse_image_header
 .text.jump_to_image_no_args
                0x00000000fffc4480       0x10 common/spl/built-in.o
                0x00000000fffc4480                jump_to_image_no_args
 .text.spl_set_bd
                0x00000000fffc4490       0x18 common/spl/built-in.o
                0x00000000fffc4490                spl_set_bd
 .text.spl_init
                0x00000000fffc44a8       0x44 common/spl/built-in.o
                0x00000000fffc44a8                spl_init
 .text.board_boot_order
                0x00000000fffc44ec       0x24 common/spl/built-in.o
                0x00000000fffc44ec                board_boot_order
 .text.board_init_r
                0x00000000fffc4510      0x1ac common/spl/built-in.o
                0x00000000fffc4510                board_init_r
 .text.preloader_console_init
                0x00000000fffc46bc       0x30 common/spl/built-in.o
                0x00000000fffc46bc                preloader_console_init
 .text.spl_relocate_stack_gd
                0x00000000fffc46ec        0x8 common/spl/built-in.o
                0x00000000fffc46ec                spl_relocate_stack_gd
 .text.spl_fit_get_image_name.isra.0
                0x00000000fffc46f4      0x118 common/spl/built-in.o
 .text.spl_fit_get_image_node
                0x00000000fffc480c       0x50 common/spl/built-in.o
 .text.spl_load_fit_image
                0x00000000fffc485c      0x1ac common/spl/built-in.o
 .text.spl_fit_append_fdt
                0x00000000fffc4a08       0x98 common/spl/built-in.o
 .text.board_spl_fit_size_align
                0x00000000fffc4aa0        0x4 common/spl/built-in.o
                0x00000000fffc4aa0                board_spl_fit_size_align
 .text.spl_load_simple_fit
                0x00000000fffc4aa4      0x348 common/spl/built-in.o
                0x00000000fffc4aa4                spl_load_simple_fit
 .text.h_spl_load_read
                0x00000000fffc4dec       0x40 common/spl/built-in.o
 .text.spl_boot_mode
                0x00000000fffc4e2c        0x8 common/spl/built-in.o
                0x00000000fffc4e2c                spl_boot_mode
 .text.spl_mmc_load_image
                0x00000000fffc4e34      0x2c4 common/spl/built-in.o
                0x00000000fffc4e34                spl_mmc_load_image
 .text.spl_fit_images_get_entry
                0x00000000fffc50f8       0x50 common/spl/built-in.o
                0x00000000fffc50f8                spl_fit_images_get_entry
 .text.spl_invoke_atf
                0x00000000fffc5148      0x1a4 common/spl/built-in.o
                0x00000000fffc5148                spl_invoke_atf
 .text.spl_fit_read
                0x00000000fffc52ec       0x3c common/spl/built-in.o
 .text.spl_load_image_fat
                0x00000000fffc5328      0x130 common/spl/built-in.o
                0x00000000fffc5328                spl_load_image_fat
 .text.spl_load_image_fat_os
                0x00000000fffc5458       0xe4 common/spl/built-in.o
                0x00000000fffc5458                spl_load_image_fat_os
 .text.spl_ram_load_read
                0x00000000fffc553c       0x30 common/spl/built-in.o
 .text.spl_ram_load_image
                0x00000000fffc556c       0x74 common/spl/built-in.o
 .text.board_init_f_alloc_reserve
                0x00000000fffc55e0       0x10 common/init/built-in.o
                0x00000000fffc55e0                board_init_f_alloc_reserve
 .text.board_init_f_init_reserve
                0x00000000fffc55f0       0x30 common/init/built-in.o
                0x00000000fffc55f0                board_init_f_init_reserve
 .text.fdt_getprop_u32
                0x00000000fffc5620       0x38 common/built-in.o
                0x00000000fffc5620                fdt_getprop_u32
 .text.fit_find_config_node
                0x00000000fffc5658      0x108 common/built-in.o
                0x00000000fffc5658                fit_find_config_node
 .text.fdt_find_or_add_subnode
                0x00000000fffc5760       0x74 common/built-in.o
                0x00000000fffc5760                fdt_find_or_add_subnode
 .text.fdt_fixup_memory_banks
                0x00000000fffc57d4      0x23c common/built-in.o
                0x00000000fffc57d4                fdt_fixup_memory_banks
 .text.fdt_record_loadable
                0x00000000fffc5a10      0x178 common/built-in.o
                0x00000000fffc5a10                fdt_record_loadable
 .text.fdt_shrink_to_minimum
                0x00000000fffc5b88       0xc8 common/built-in.o
                0x00000000fffc5b88                fdt_shrink_to_minimum
 .text.fgetc.part.0
                0x00000000fffc5c50       0x3c common/built-in.o
 .text.getc     0x00000000fffc5c8c       0x24 common/built-in.o
                0x00000000fffc5c8c                getc
 .text.ftstc    0x00000000fffc5cb0       0x24 common/built-in.o
                0x00000000fffc5cb0                ftstc
 .text.tstc     0x00000000fffc5cd4       0x24 common/built-in.o
                0x00000000fffc5cd4                tstc
 .text.fputc    0x00000000fffc5cf8       0x24 common/built-in.o
                0x00000000fffc5cf8                fputc
 .text.putc     0x00000000fffc5d1c       0x38 common/built-in.o
                0x00000000fffc5d1c                putc
 .text.fputs    0x00000000fffc5d54       0x20 common/built-in.o
                0x00000000fffc5d54                fputs
 .text.puts     0x00000000fffc5d74       0x6c common/built-in.o
                0x00000000fffc5d74                puts
 .text.ctrlc    0x00000000fffc5de0       0x58 common/built-in.o
                0x00000000fffc5de0                ctrlc
 .text.sbrk     0x00000000fffc5e38       0x74 common/built-in.o
                0x00000000fffc5e38                sbrk
 .text.mem_malloc_init
                0x00000000fffc5eac       0x28 common/built-in.o
                0x00000000fffc5eac                mem_malloc_init
 .text.malloc_trim
                0x00000000fffc5ed4       0xd8 common/built-in.o
                0x00000000fffc5ed4                malloc_trim
 .text.free     0x00000000fffc5fac      0x22c common/built-in.o
                0x00000000fffc5fac                free
 .text.malloc   0x00000000fffc61d8      0x654 common/built-in.o
                0x00000000fffc61d8                malloc
 .text.calloc   0x00000000fffc682c      0x10c common/built-in.o
                0x00000000fffc682c                calloc
 .text.memalign
                0x00000000fffc6938      0x1c0 common/built-in.o
                0x00000000fffc6938                memalign
 .text.alloc_simple
                0x00000000fffc6af8       0x54 common/built-in.o
 .text.malloc_simple
                0x00000000fffc6b4c        0x8 common/built-in.o
                0x00000000fffc6b4c                malloc_simple
 .text.get_table_entry_id
                0x00000000fffc6b54       0x50 common/built-in.o
                0x00000000fffc6b54                get_table_entry_id
 .text.genimg_get_os_id
                0x00000000fffc6ba4       0x18 common/built-in.o
                0x00000000fffc6ba4                genimg_get_os_id
 .text.fit_image_get_address
                0x00000000fffc6bbc       0x84 common/built-in.o
 .text.fit_image_get_os
                0x00000000fffc6c40       0x4c common/built-in.o
                0x00000000fffc6c40                fit_image_get_os
 .text.fit_image_get_load
                0x00000000fffc6c8c       0x10 common/built-in.o
                0x00000000fffc6c8c                fit_image_get_load
 .text.fit_image_get_data
                0x00000000fffc6c9c       0x50 common/built-in.o
                0x00000000fffc6c9c                fit_image_get_data
 .text.fit_image_get_data_offset
                0x00000000fffc6cec       0x48 common/built-in.o
                0x00000000fffc6cec                fit_image_get_data_offset
 .text.fit_image_get_data_position
                0x00000000fffc6d34       0x48 common/built-in.o
                0x00000000fffc6d34                fit_image_get_data_position
 .text.fit_image_get_data_size
                0x00000000fffc6d7c       0x48 common/built-in.o
                0x00000000fffc6d7c                fit_image_get_data_size
 .text.fdt_check_header
                0x00000000fffc6dc4       0x74 lib/built-in.o
                0x00000000fffc6dc4                fdt_check_header
 .text.fdt_offset_ptr
                0x00000000fffc6e38       0x74 lib/built-in.o
                0x00000000fffc6e38                fdt_offset_ptr
 .text.fdt_next_tag
                0x00000000fffc6eac      0x104 lib/built-in.o
                0x00000000fffc6eac                fdt_next_tag
 .text.fdt_check_node_offset_
                0x00000000fffc6fb0       0x40 lib/built-in.o
                0x00000000fffc6fb0                fdt_check_node_offset_
 .text.fdt_check_prop_offset_
                0x00000000fffc6ff0       0x40 lib/built-in.o
                0x00000000fffc6ff0                fdt_check_prop_offset_
 .text.fdt_next_node
                0x00000000fffc7030       0xb0 lib/built-in.o
                0x00000000fffc7030                fdt_next_node
 .text.fdt_first_subnode
                0x00000000fffc70e0       0x34 lib/built-in.o
                0x00000000fffc70e0                fdt_first_subnode
 .text.fdt_next_subnode
                0x00000000fffc7114       0x5c lib/built-in.o
                0x00000000fffc7114                fdt_next_subnode
 .text.fdt_find_string_
                0x00000000fffc7170       0x70 lib/built-in.o
                0x00000000fffc7170                fdt_find_string_
 .text.fdt_strerror
                0x00000000fffc71e0       0x4c lib/built-in.o
                0x00000000fffc71e0                fdt_strerror
 .text.fdt_blocks_misordered_
                0x00000000fffc722c       0x60 lib/built-in.o
 .text.fdt_splice_
                0x00000000fffc728c       0x98 lib/built-in.o
 .text.fdt_splice_mem_rsv_
                0x00000000fffc7324       0x6c lib/built-in.o
 .text.fdt_splice_struct_
                0x00000000fffc7390       0x60 lib/built-in.o
 .text.fdt_add_property_
                0x00000000fffc73f0      0x150 lib/built-in.o
 .text.fdt_rw_check_header_
                0x00000000fffc7540       0x6c lib/built-in.o
 .text.fdt_add_mem_rsv
                0x00000000fffc75ac       0x7c lib/built-in.o
                0x00000000fffc75ac                fdt_add_mem_rsv
 .text.fdt_del_mem_rsv
                0x00000000fffc7628       0x70 lib/built-in.o
                0x00000000fffc7628                fdt_del_mem_rsv
 .text.fdt_setprop_placeholder
                0x00000000fffc7698       0xd8 lib/built-in.o
                0x00000000fffc7698                fdt_setprop_placeholder
 .text.fdt_setprop
                0x00000000fffc7770       0x54 lib/built-in.o
                0x00000000fffc7770                fdt_setprop
 .text.fdt_add_subnode_namelen
                0x00000000fffc77c4      0x11c lib/built-in.o
                0x00000000fffc77c4                fdt_add_subnode_namelen
 .text.fdt_add_subnode
                0x00000000fffc78e0       0x44 lib/built-in.o
                0x00000000fffc78e0                fdt_add_subnode
 .text.fdt_address_cells
                0x00000000fffc7924       0x58 lib/built-in.o
                0x00000000fffc7924                fdt_address_cells
 .text.fdt_size_cells
                0x00000000fffc797c       0x54 lib/built-in.o
                0x00000000fffc797c                fdt_size_cells
 .text.fdt_path_next_separator
                0x00000000fffc79d0       0x68 lib/built-in.o
 .text._nextprop
                0x00000000fffc7a38       0x64 lib/built-in.o
 .text.fdt_string
                0x00000000fffc7a9c       0x14 lib/built-in.o
                0x00000000fffc7a9c                fdt_string
 .text.fdt_get_mem_rsv
                0x00000000fffc7ab0       0x68 lib/built-in.o
                0x00000000fffc7ab0                fdt_get_mem_rsv
 .text.fdt_num_mem_rsv
                0x00000000fffc7b18       0x2c lib/built-in.o
                0x00000000fffc7b18                fdt_num_mem_rsv
 .text.fdt_subnode_offset_namelen
                0x00000000fffc7b44       0xec lib/built-in.o
                0x00000000fffc7b44                fdt_subnode_offset_namelen
 .text.fdt_subnode_offset
                0x00000000fffc7c30       0x44 lib/built-in.o
                0x00000000fffc7c30                fdt_subnode_offset
 .text.fdt_get_name
                0x00000000fffc7c74       0x7c lib/built-in.o
                0x00000000fffc7c74                fdt_get_name
 .text.fdt_first_property_offset
                0x00000000fffc7cf0       0x38 lib/built-in.o
                0x00000000fffc7cf0                fdt_first_property_offset
 .text.fdt_next_property_offset
                0x00000000fffc7d28       0x38 lib/built-in.o
                0x00000000fffc7d28                fdt_next_property_offset
 .text.fdt_get_property_by_offset
                0x00000000fffc7d60       0x64 lib/built-in.o
                0x00000000fffc7d60                fdt_get_property_by_offset
 .text.fdt_get_property_namelen
                0x00000000fffc7dc4       0xd4 lib/built-in.o
                0x00000000fffc7dc4                fdt_get_property_namelen
 .text.fdt_get_property
                0x00000000fffc7e98       0x4c lib/built-in.o
                0x00000000fffc7e98                fdt_get_property
 .text.fdt_getprop_namelen
                0x00000000fffc7ee4       0x20 lib/built-in.o
                0x00000000fffc7ee4                fdt_getprop_namelen
 .text.fdt_getprop_by_offset
                0x00000000fffc7f04       0x54 lib/built-in.o
                0x00000000fffc7f04                fdt_getprop_by_offset
 .text.fdt_getprop
                0x00000000fffc7f58       0x4c lib/built-in.o
                0x00000000fffc7f58                fdt_getprop
 .text.fdt_get_phandle
                0x00000000fffc7fa4       0x78 lib/built-in.o
                0x00000000fffc7fa4                fdt_get_phandle
 .text.fdt_get_alias_namelen
                0x00000000fffc801c       0x64 lib/built-in.o
                0x00000000fffc801c                fdt_get_alias_namelen
 .text.fdt_path_offset_namelen
                0x00000000fffc8080       0xfc lib/built-in.o
                0x00000000fffc8080                fdt_path_offset_namelen
 .text.fdt_path_offset
                0x00000000fffc817c       0x34 lib/built-in.o
                0x00000000fffc817c                fdt_path_offset
 .text.fdt_supernode_atdepth_offset
                0x00000000fffc81b0       0xc0 lib/built-in.o
                0x00000000fffc81b0                fdt_supernode_atdepth_offset
 .text.fdt_node_depth
                0x00000000fffc8270       0x30 lib/built-in.o
                0x00000000fffc8270                fdt_node_depth
 .text.fdt_parent_offset
                0x00000000fffc82a0       0x44 lib/built-in.o
                0x00000000fffc82a0                fdt_parent_offset
 .text.fdt_node_offset_by_prop_value
                0x00000000fffc82e4       0xb4 lib/built-in.o
                0x00000000fffc82e4                fdt_node_offset_by_prop_value
 .text.fdt_node_offset_by_phandle
                0x00000000fffc8398       0x84 lib/built-in.o
                0x00000000fffc8398                fdt_node_offset_by_phandle
 .text.fdt_stringlist_contains
                0x00000000fffc841c       0x98 lib/built-in.o
                0x00000000fffc841c                fdt_stringlist_contains
 .text.fdt_stringlist_search
                0x00000000fffc84b4       0xc4 lib/built-in.o
                0x00000000fffc84b4                fdt_stringlist_search
 .text.fdt_node_check_compatible
                0x00000000fffc8578       0x4c lib/built-in.o
                0x00000000fffc8578                fdt_node_check_compatible
 .text.fdtdec_get_int
                0x00000000fffc85c4       0x40 lib/built-in.o
                0x00000000fffc85c4                fdtdec_get_int
 .text.get_prop_check_min_len
                0x00000000fffc8604       0x48 lib/built-in.o
 .text.fdtdec_get_is_enabled
                0x00000000fffc864c       0x40 lib/built-in.o
                0x00000000fffc864c                fdtdec_get_is_enabled
 .text.get_next_memory_node
                0x00000000fffc868c       0x68 lib/built-in.o
 .text.fdtdec_get_alias_seq
                0x00000000fffc86f4      0x128 lib/built-in.o
                0x00000000fffc86f4                fdtdec_get_alias_seq
 .text.fdtdec_get_chosen_prop
                0x00000000fffc881c       0x44 lib/built-in.o
                0x00000000fffc881c                fdtdec_get_chosen_prop
 .text.fdtdec_get_chosen_node
                0x00000000fffc8860       0x3c lib/built-in.o
                0x00000000fffc8860                fdtdec_get_chosen_node
 .text.fdtdec_prepare_fdt
                0x00000000fffc889c       0x44 lib/built-in.o
                0x00000000fffc889c                fdtdec_prepare_fdt
 .text.fdtdec_get_int_array
                0x00000000fffc88e0       0x60 lib/built-in.o
                0x00000000fffc88e0                fdtdec_get_int_array
 .text.fdtdec_get_bool
                0x00000000fffc8940       0x20 lib/built-in.o
                0x00000000fffc8940                fdtdec_get_bool
 .text.fdtdec_parse_phandle_with_args
                0x00000000fffc8960      0x154 lib/built-in.o
                0x00000000fffc8960                fdtdec_parse_phandle_with_args
 .text.fdtdec_get_number
                0x00000000fffc8ab4       0x30 lib/built-in.o
                0x00000000fffc8ab4                fdtdec_get_number
 .text.fdtdec_get_addr_size_fixed
                0x00000000fffc8ae4       0xb0 lib/built-in.o
                0x00000000fffc8ae4                fdtdec_get_addr_size_fixed
 .text.fdtdec_get_addr_size_auto_parent
                0x00000000fffc8b94       0xa8 lib/built-in.o
                0x00000000fffc8b94                fdtdec_get_addr_size_auto_parent
 .text.fdtdec_get_addr_size
                0x00000000fffc8c3c       0x20 lib/built-in.o
                0x00000000fffc8c3c                fdtdec_get_addr_size
 .text.fdt_get_resource
                0x00000000fffc8c5c      0x114 lib/built-in.o
                0x00000000fffc8c5c                fdt_get_resource
 .text.fdtdec_setup_memory_banksize
                0x00000000fffc8d70       0xfc lib/built-in.o
                0x00000000fffc8d70                fdtdec_setup_memory_banksize
 .text.board_fdt_blob_setup
                0x00000000fffc8e6c        0xc lib/built-in.o
                0x00000000fffc8e6c                board_fdt_blob_setup
 .text.fdtdec_setup
                0x00000000fffc8e78       0x24 lib/built-in.o
                0x00000000fffc8e78                fdtdec_setup
 .text.crc32_no_comp
                0x00000000fffc8e9c       0xdc lib/built-in.o
                0x00000000fffc8e9c                crc32_no_comp
 .text.crc32    0x00000000fffc8f78       0x1c lib/built-in.o
                0x00000000fffc8f78                crc32
 .text.hang     0x00000000fffc8f94       0x20 lib/built-in.o
                0x00000000fffc8f94                hang
 .text.strncasecmp
                0x00000000fffc8fb4       0x78 lib/built-in.o
                0x00000000fffc8fb4                strncasecmp
 .text.strcasecmp
                0x00000000fffc902c        0x8 lib/built-in.o
                0x00000000fffc902c                strcasecmp
 .text.strcpy   0x00000000fffc9034       0x18 lib/built-in.o
                0x00000000fffc9034                strcpy
 .text.strcmp   0x00000000fffc904c       0x28 lib/built-in.o
                0x00000000fffc904c                strcmp
 .text.strncmp  0x00000000fffc9074       0x38 lib/built-in.o
                0x00000000fffc9074                strncmp
 .text.strchr   0x00000000fffc90ac       0x28 lib/built-in.o
                0x00000000fffc90ac                strchr
 .text.strlen   0x00000000fffc90d4       0x1c lib/built-in.o
                0x00000000fffc90d4                strlen
 .text.strrchr  0x00000000fffc90f0       0x40 lib/built-in.o
                0x00000000fffc90f0                strrchr
 .text.strnlen  0x00000000fffc9130       0x28 lib/built-in.o
                0x00000000fffc9130                strnlen
 .text.strdup   0x00000000fffc9158       0x4c lib/built-in.o
                0x00000000fffc9158                strdup
 .text.memset   0x00000000fffc91a4       0x70 lib/built-in.o
                0x00000000fffc91a4                memset
 .text.memcpy   0x00000000fffc9214       0x70 lib/built-in.o
                0x00000000fffc9214                memcpy
 .text.memmove  0x00000000fffc9284       0x4c lib/built-in.o
                0x00000000fffc9284                memmove
 .text.memcmp   0x00000000fffc92d0       0x30 lib/built-in.o
                0x00000000fffc92d0                memcmp
 .text.memchr   0x00000000fffc9300       0x30 lib/built-in.o
                0x00000000fffc9300                memchr
 .text.timer_init
                0x00000000fffc9330        0x8 lib/built-in.o
                0x00000000fffc9330                timer_init
 .text.get_timer
                0x00000000fffc9338       0x3c lib/built-in.o
                0x00000000fffc9338                get_timer
 .text.__udelay
                0x00000000fffc9374       0x4c lib/built-in.o
                0x00000000fffc9374                __udelay
 .text.udelay   0x00000000fffc93c0       0x44 lib/built-in.o
                0x00000000fffc93c0                udelay
 .text.uuid_bin_to_str
                0x00000000fffc9404       0xd4 lib/built-in.o
                0x00000000fffc9404                uuid_bin_to_str
 .text.panic_str
                0x00000000fffc94d8       0x18 lib/built-in.o
                0x00000000fffc94d8                panic_str
 .text.put_dec_trunc
                0x00000000fffc94f0       0xe0 lib/built-in.o
 .text.put_dec  0x00000000fffc95d0       0xd0 lib/built-in.o
 .text.number   0x00000000fffc96a0      0x2cc lib/built-in.o
 .text.string   0x00000000fffc996c       0xdc lib/built-in.o
 .text.vsnprintf_internal
                0x00000000fffc9a48      0x980 lib/built-in.o
 .text.vscnprintf
                0x00000000fffca3c8       0x74 lib/built-in.o
                0x00000000fffca3c8                vscnprintf
 .text.snprintf
                0x00000000fffca43c       0x7c lib/built-in.o
                0x00000000fffca43c                snprintf
 .text.vsprintf
                0x00000000fffca4b8       0x44 lib/built-in.o
                0x00000000fffca4b8                vsprintf
 .text.sprintf  0x00000000fffca4fc       0x74 lib/built-in.o
                0x00000000fffca4fc                sprintf
 .text.printf   0x00000000fffca570       0xb4 lib/built-in.o
                0x00000000fffca570                printf
 .text._parse_integer_fixup_radix
                0x00000000fffca624       0xac lib/built-in.o
 .text.simple_strtoul
                0x00000000fffca6d0       0x98 lib/built-in.o
                0x00000000fffca6d0                simple_strtoul
 .text.trailing_strtoln
                0x00000000fffca768       0x78 lib/built-in.o
                0x00000000fffca768                trailing_strtoln
 .text.trailing_strtol
                0x00000000fffca7e0        0x8 lib/built-in.o
                0x00000000fffca7e0                trailing_strtol
 .text.part_driver_lookup_type
                0x00000000fffca7e8       0xa8 disk/built-in.o
 .text.part_init
                0x00000000fffca890       0x7c disk/built-in.o
                0x00000000fffca890                part_init
 .text.part_get_info
                0x00000000fffca90c       0x68 disk/built-in.o
                0x00000000fffca90c                part_get_info
 .text.part_set_generic_name
                0x00000000fffca974       0x48 disk/built-in.o
                0x00000000fffca974                part_set_generic_name
 .text.test_block_type
                0x00000000fffca9bc       0x90 disk/built-in.o
 .text.part_test_dos
                0x00000000fffcaa4c       0x68 disk/built-in.o
 .text.part_get_info_extended
                0x00000000fffcaab4      0x2c4 disk/built-in.o
 .text.part_get_info_dos
                0x00000000fffcad78       0x1c disk/built-in.o
                0x00000000fffcad78                part_get_info_dos
 .text.print_efiname
                0x00000000fffcad94       0x5c disk/built-in.o
 .text.part_test_efi
                0x00000000fffcadf0       0xb4 disk/built-in.o
 .text.validate_gpt_entries
                0x00000000fffcaea4       0xa8 disk/built-in.o
 .text.validate_gpt_header
                0x00000000fffcaf4c      0x230 disk/built-in.o
 .text.is_gpt_valid
                0x00000000fffcb17c      0x28c disk/built-in.o
 .text.is_pte_valid
                0x00000000fffcb408       0x64 disk/built-in.o
 .text.part_get_info_efi
                0x00000000fffcb46c      0x240 disk/built-in.o
                0x00000000fffcb46c                part_get_info_efi
 .text.clk_request
                0x00000000fffcb6ac       0x24 drivers/built-in.o
                0x00000000fffcb6ac                clk_request
 .text.clk_get_by_indexed_prop.isra.1
                0x00000000fffcb6d0       0xb4 drivers/built-in.o
 .text.clk_get_by_index
                0x00000000fffcb784       0x18 drivers/built-in.o
                0x00000000fffcb784                clk_get_by_index
 .text.clk_get_by_name
                0x00000000fffcb79c       0x54 drivers/built-in.o
                0x00000000fffcb79c                clk_get_by_name
 .text.clk_get_rate
                0x00000000fffcb7f0       0x20 drivers/built-in.o
                0x00000000fffcb7f0                clk_get_rate
 .text.clk_set_rate
                0x00000000fffcb810       0x20 drivers/built-in.o
                0x00000000fffcb810                clk_set_rate
 .text.clk_set_parent
                0x00000000fffcb830       0x20 drivers/built-in.o
                0x00000000fffcb830                clk_set_parent
 .text.clk_set_defaults
                0x00000000fffcb850      0x18c drivers/built-in.o
                0x00000000fffcb850                clk_set_defaults
 .text.clk_enable
                0x00000000fffcb9dc       0x20 drivers/built-in.o
                0x00000000fffcb9dc                clk_enable
 .text.clk_fixed_rate_ofdata_to_platdata
                0x00000000fffcb9fc       0x44 drivers/built-in.o
 .text.clk_fixed_rate_get_rate
                0x00000000fffcba40       0x2c drivers/built-in.o
 .text.zynqmp_get_freq_by_name
                0x00000000fffcba6c       0x84 drivers/built-in.o
 .text.zynqmp_clk_probe
                0x00000000fffcbaf0       0xa8 drivers/built-in.o
 .text.zynqmp_clk_get_pll_rate
                0x00000000fffcbb98       0xe4 drivers/built-in.o
 .text.zynqmp_clk_set_rate
                0x00000000fffcbc7c      0x188 drivers/built-in.o
 .text.zynqmp_clk_get_rate
                0x00000000fffcbe04      0x2a8 drivers/built-in.o
 .text.device_bind_common.isra.0
                0x00000000fffcc0ac      0x2a4 drivers/built-in.o
 .text.alloc_priv
                0x00000000fffcc350       0x68 drivers/built-in.o
 .text.device_bind_with_driver_data
                0x00000000fffcc3b8       0x14 drivers/built-in.o
                0x00000000fffcc3b8                device_bind_with_driver_data
 .text.device_bind_by_name
                0x00000000fffcc3cc       0x7c drivers/built-in.o
                0x00000000fffcc3cc                device_bind_by_name
 .text.device_probe
                0x00000000fffcc448      0x1ac drivers/built-in.o
                0x00000000fffcc448                device_probe
 .text.dev_get_platdata
                0x00000000fffcc5f4       0x14 drivers/built-in.o
                0x00000000fffcc5f4                dev_get_platdata
 .text.dev_get_parent_platdata
                0x00000000fffcc608       0x14 drivers/built-in.o
                0x00000000fffcc608                dev_get_parent_platdata
 .text.dev_get_uclass_platdata
                0x00000000fffcc61c       0x14 drivers/built-in.o
                0x00000000fffcc61c                dev_get_uclass_platdata
 .text.dev_get_priv
                0x00000000fffcc630       0x14 drivers/built-in.o
                0x00000000fffcc630                dev_get_priv
 .text.dev_get_uclass_priv
                0x00000000fffcc644       0x14 drivers/built-in.o
                0x00000000fffcc644                dev_get_uclass_priv
 .text.dev_get_parent_priv
                0x00000000fffcc658       0x14 drivers/built-in.o
                0x00000000fffcc658                dev_get_parent_priv
 .text.device_find_first_child
                0x00000000fffcc66c       0x20 drivers/built-in.o
                0x00000000fffcc66c                device_find_first_child
 .text.dev_get_parent
                0x00000000fffcc68c        0x8 drivers/built-in.o
                0x00000000fffcc68c                dev_get_parent
 .text.device_get_uclass_id
                0x00000000fffcc694       0x10 drivers/built-in.o
                0x00000000fffcc694                device_get_uclass_id
 .text.device_set_name_alloced
                0x00000000fffcc6a4       0x10 drivers/built-in.o
                0x00000000fffcc6a4                device_set_name_alloced
 .text.devfdt_get_addr_index
                0x00000000fffcc6b4       0x7c drivers/built-in.o
                0x00000000fffcc6b4                devfdt_get_addr_index
 .text.devfdt_get_addr
                0x00000000fffcc730        0x8 drivers/built-in.o
                0x00000000fffcc730                devfdt_get_addr
 .text.lists_driver_lookup_name
                0x00000000fffcc738       0x78 drivers/built-in.o
                0x00000000fffcc738                lists_driver_lookup_name
 .text.lists_uclass_lookup
                0x00000000fffcc7b0       0x58 drivers/built-in.o
                0x00000000fffcc7b0                lists_uclass_lookup
 .text.lists_bind_drivers
                0x00000000fffcc808       0x90 drivers/built-in.o
                0x00000000fffcc808                lists_bind_drivers
 .text.device_bind_driver_to_node
                0x00000000fffcc898       0x68 drivers/built-in.o
                0x00000000fffcc898                device_bind_driver_to_node
 .text.device_bind_driver
                0x00000000fffcc900        0xc drivers/built-in.o
                0x00000000fffcc900                device_bind_driver
 .text.lists_bind_fdt
                0x00000000fffcc90c      0x168 drivers/built-in.o
                0x00000000fffcc90c                lists_bind_fdt
 .text.dm_scan_fdt_node
                0x00000000fffcca74       0xf8 drivers/built-in.o
 .text.dm_scan_fdt_ofnode_path
                0x00000000fffccb6c       0x48 drivers/built-in.o
 .text.dm_root  0x00000000fffccbb4       0x18 drivers/built-in.o
                0x00000000fffccbb4                dm_root
 .text.dm_get_translation_offset
                0x00000000fffccbcc       0x1c drivers/built-in.o
                0x00000000fffccbcc                dm_get_translation_offset
 .text.dm_init  0x00000000fffccbe8       0x5c drivers/built-in.o
                0x00000000fffccbe8                dm_init
 .text.dm_scan_platdata
                0x00000000fffccc44       0x28 drivers/built-in.o
                0x00000000fffccc44                dm_scan_platdata
 .text.dm_scan_fdt_dev
                0x00000000fffccc6c       0x28 drivers/built-in.o
                0x00000000fffccc6c                dm_scan_fdt_dev
 .text.dm_scan_fdt
                0x00000000fffccc94       0x18 drivers/built-in.o
                0x00000000fffccc94                dm_scan_fdt
 .text.dm_extended_scan_fdt
                0x00000000fffcccac       0x58 drivers/built-in.o
                0x00000000fffcccac                dm_extended_scan_fdt
 .text.dm_scan_other
                0x00000000fffccd04        0x8 drivers/built-in.o
                0x00000000fffccd04                dm_scan_other
 .text.dm_init_and_scan
                0x00000000fffccd0c       0x54 drivers/built-in.o
                0x00000000fffccd0c                dm_init_and_scan
 .text.uclass_find
                0x00000000fffccd60       0x48 drivers/built-in.o
                0x00000000fffccd60                uclass_find
 .text.uclass_get
                0x00000000fffccda8      0x130 drivers/built-in.o
                0x00000000fffccda8                uclass_get
 .text.uclass_find_device
                0x00000000fffcced8       0x78 drivers/built-in.o
                0x00000000fffcced8                uclass_find_device
 .text.uclass_find_first_device
                0x00000000fffccf50       0x48 drivers/built-in.o
                0x00000000fffccf50                uclass_find_first_device
 .text.uclass_find_device_by_seq
                0x00000000fffccf98       0x90 drivers/built-in.o
                0x00000000fffccf98                uclass_find_device_by_seq
 .text.uclass_find_device_by_of_offset
                0x00000000fffcd028       0x78 drivers/built-in.o
                0x00000000fffcd028                uclass_find_device_by_of_offset
 .text.uclass_find_device_by_ofnode
                0x00000000fffcd0a0       0x7c drivers/built-in.o
                0x00000000fffcd0a0                uclass_find_device_by_ofnode
 .text.uclass_get_device_tail
                0x00000000fffcd11c       0x40 drivers/built-in.o
                0x00000000fffcd11c                uclass_get_device_tail
 .text.uclass_get_device
                0x00000000fffcd15c       0x38 drivers/built-in.o
                0x00000000fffcd15c                uclass_get_device
 .text.uclass_get_device_by_seq
                0x00000000fffcd194       0x68 drivers/built-in.o
                0x00000000fffcd194                uclass_get_device_by_seq
 .text.uclass_get_device_by_of_offset
                0x00000000fffcd1fc       0x38 drivers/built-in.o
                0x00000000fffcd1fc                uclass_get_device_by_of_offset
 .text.uclass_get_device_by_ofnode
                0x00000000fffcd234       0x38 drivers/built-in.o
                0x00000000fffcd234                uclass_get_device_by_ofnode
 .text.uclass_first_device
                0x00000000fffcd26c       0x44 drivers/built-in.o
                0x00000000fffcd26c                uclass_first_device
 .text.uclass_bind_device
                0x00000000fffcd2b0       0x70 drivers/built-in.o
                0x00000000fffcd2b0                uclass_bind_device
 .text.uclass_resolve_seq
                0x00000000fffcd320       0x98 drivers/built-in.o
                0x00000000fffcd320                uclass_resolve_seq
 .text.uclass_pre_probe_device
                0x00000000fffcd3b8       0x64 drivers/built-in.o
                0x00000000fffcd3b8                uclass_pre_probe_device
 .text.uclass_post_probe_device
                0x00000000fffcd41c       0x64 drivers/built-in.o
                0x00000000fffcd41c                uclass_post_probe_device
 .text.dm_ofnode_pre_reloc
                0x00000000fffcd480       0x48 drivers/built-in.o
                0x00000000fffcd480                dm_ofnode_pre_reloc
 .text.simple_bus_post_bind
                0x00000000fffcd4c8       0x60 drivers/built-in.o
 .text.simple_bus_translate
                0x00000000fffcd528       0x50 drivers/built-in.o
                0x00000000fffcd528                simple_bus_translate
 .text.ofnode_read_u32
                0x00000000fffcd578       0x5c drivers/built-in.o
                0x00000000fffcd578                ofnode_read_u32
 .text.ofnode_read_u32_default
                0x00000000fffcd5d4       0x24 drivers/built-in.o
                0x00000000fffcd5d4                ofnode_read_u32_default
 .text.ofnode_read_u32_array
                0x00000000fffcd5f8       0x1c drivers/built-in.o
                0x00000000fffcd5f8                ofnode_read_u32_array
 .text.ofnode_get_name
                0x00000000fffcd614       0x14 drivers/built-in.o
                0x00000000fffcd614                ofnode_get_name
 .text.ofnode_read_size
                0x00000000fffcd628       0x38 drivers/built-in.o
                0x00000000fffcd628                ofnode_read_size
 .text.ofnode_stringlist_search
                0x00000000fffcd660       0x44 drivers/built-in.o
                0x00000000fffcd660                ofnode_stringlist_search
 .text.ofnode_parse_phandle_with_args
                0x00000000fffcd6a4       0x6c drivers/built-in.o
                0x00000000fffcd6a4                ofnode_parse_phandle_with_args
 .text.ofnode_count_phandle_with_args
                0x00000000fffcd710       0x24 drivers/built-in.o
                0x00000000fffcd710                ofnode_count_phandle_with_args
 .text.ofnode_path
                0x00000000fffcd734       0x24 drivers/built-in.o
                0x00000000fffcd734                ofnode_path
 .text.ofnode_get_property
                0x00000000fffcd758       0x18 drivers/built-in.o
                0x00000000fffcd758                ofnode_get_property
 .text.ofnode_read_bool
                0x00000000fffcd770       0x20 drivers/built-in.o
                0x00000000fffcd770                ofnode_read_bool
 .text.ofnode_get_addr_size
                0x00000000fffcd790       0x18 drivers/built-in.o
                0x00000000fffcd790                ofnode_get_addr_size
 .text.ofnode_device_is_compatible
                0x00000000fffcd7a8       0x2c drivers/built-in.o
                0x00000000fffcd7a8                ofnode_device_is_compatible
 .text.mmc_send_op_cond_iter
                0x00000000fffcd7d4       0x74 drivers/built-in.o
 .text.mmc_send_ext_csd
                0x00000000fffcd848       0x40 drivers/built-in.o
 .text.mmc_go_idle
                0x00000000fffcd888       0x50 drivers/built-in.o
 .text.mmc_set_capacity
                0x00000000fffcd8d8       0x84 drivers/built-in.o
 .text.mmc_read_and_compare_ext_csd
                0x00000000fffcd95c       0xb0 drivers/built-in.o
 .text.sd_get_capabilities
                0x00000000fffcda0c      0x1b0 drivers/built-in.o
 .text.mmc_send_status
                0x00000000fffcdbbc       0xd4 drivers/built-in.o
                0x00000000fffcdbbc                mmc_send_status
 .text.mmc_set_blocklen
                0x00000000fffcdc90       0x7c drivers/built-in.o
                0x00000000fffcdc90                mmc_set_blocklen
 .text.mmc_bread
                0x00000000fffcdd0c      0x180 drivers/built-in.o
                0x00000000fffcdd0c                mmc_bread
 .text.mmc_switch
                0x00000000fffcde8c       0x6c drivers/built-in.o
                0x00000000fffcde8c                mmc_switch
 .text.mmc_startup_v4
                0x00000000fffcdef8      0x20c drivers/built-in.o
 .text.mmc_set_card_speed
                0x00000000fffce104       0xa0 drivers/built-in.o
 .text.mmc_switch_part
                0x00000000fffce1a4       0x7c drivers/built-in.o
                0x00000000fffce1a4                mmc_switch_part
 .text.mmc_set_clock
                0x00000000fffce220       0x30 drivers/built-in.o
                0x00000000fffce220                mmc_set_clock
 .text.mmc_get_op_cond
                0x00000000fffce250      0x22c drivers/built-in.o
                0x00000000fffce250                mmc_get_op_cond
 .text.mmc_start_init
                0x00000000fffce47c       0x68 drivers/built-in.o
                0x00000000fffce47c                mmc_start_init
 .text.mmc_init
                0x00000000fffce4e4      0x94c drivers/built-in.o
                0x00000000fffce4e4                mmc_init
 .text.mmc_initialize
                0x00000000fffcee30       0xd0 drivers/built-in.o
                0x00000000fffcee30                mmc_initialize
 .text.mmc_blk_probe
                0x00000000fffcef00       0x1c drivers/built-in.o
 .text.dm_mmc_set_ios
                0x00000000fffcef1c       0x1c drivers/built-in.o
                0x00000000fffcef1c                dm_mmc_set_ios
 .text.mmc_set_ios
                0x00000000fffcef38        0x8 drivers/built-in.o
                0x00000000fffcef38                mmc_set_ios
 .text.dm_mmc_send_init_stream
                0x00000000fffcef40       0x18 drivers/built-in.o
                0x00000000fffcef40                dm_mmc_send_init_stream
 .text.mmc_send_init_stream
                0x00000000fffcef58        0x8 drivers/built-in.o
                0x00000000fffcef58                mmc_send_init_stream
 .text.dm_mmc_get_cd
                0x00000000fffcef60       0x1c drivers/built-in.o
                0x00000000fffcef60                dm_mmc_get_cd
 .text.mmc_getcd
                0x00000000fffcef7c        0x8 drivers/built-in.o
                0x00000000fffcef7c                mmc_getcd
 .text.mmc_get_mmc_dev
                0x00000000fffcef84       0x28 drivers/built-in.o
                0x00000000fffcef84                mmc_get_mmc_dev
 .text.dm_mmc_send_cmd
                0x00000000fffcefac       0x60 drivers/built-in.o
                0x00000000fffcefac                dm_mmc_send_cmd
 .text.mmc_send_cmd
                0x00000000fffcf00c        0x8 drivers/built-in.o
                0x00000000fffcf00c                mmc_send_cmd
 .text.mmc_select_hwpart
                0x00000000fffcf014       0x78 drivers/built-in.o
 .text.find_mmc_device
                0x00000000fffcf08c       0x54 drivers/built-in.o
                0x00000000fffcf08c                find_mmc_device
 .text.mmc_get_blk_desc
                0x00000000fffcf0e0       0x30 drivers/built-in.o
                0x00000000fffcf0e0                mmc_get_blk_desc
 .text.mmc_do_preinit
                0x00000000fffcf110       0x68 drivers/built-in.o
                0x00000000fffcf110                mmc_do_preinit
 .text.mmc_bind
                0x00000000fffcf178       0xa0 drivers/built-in.o
                0x00000000fffcf178                mmc_bind
 .text.sdhci_get_cd
                0x00000000fffcf218       0x58 drivers/built-in.o
                0x00000000fffcf218                sdhci_get_cd
 .text.sdhci_reset.isra.3
                0x00000000fffcf270       0x88 drivers/built-in.o
 .text.sdhci_set_clock.isra.5
                0x00000000fffcf2f8      0x1c4 drivers/built-in.o
 .text.sdhci_set_ios
                0x00000000fffcf4bc      0x128 drivers/built-in.o
 .text.sdhci_send_command
                0x00000000fffcf5e4      0x4c0 drivers/built-in.o
 .text.sdhci_probe
                0x00000000fffcfaa4      0x20c drivers/built-in.o
                0x00000000fffcfaa4                sdhci_probe
 .text.sdhci_setup_cfg
                0x00000000fffcfcb0      0x240 drivers/built-in.o
                0x00000000fffcfcb0                sdhci_setup_cfg
 .text.sdhci_bind
                0x00000000fffcfef0        0x4 drivers/built-in.o
                0x00000000fffcfef0                sdhci_bind
 .text.arasan_sdhci_set_control_reg
                0x00000000fffcfef4       0xb4 drivers/built-in.o
 .text.arasan_sdhci_set_tapdelay
                0x00000000fffcffa8       0x68 drivers/built-in.o
 .text.arasan_sdhci_probe
                0x00000000fffd0010      0x134 drivers/built-in.o
 .text.arasan_sdhci_bind
                0x00000000fffd0144       0x2c drivers/built-in.o
 .text.arasan_dt_read_tap_delay.isra.0
                0x00000000fffd0170        0xc drivers/built-in.o
 .text.arasan_sdhci_ofdata_to_platdata
                0x00000000fffd017c      0x330 drivers/built-in.o
 .text.arasan_zynqmp_dll_reset.isra.1
                0x00000000fffd04ac       0x98 drivers/built-in.o
 .text.arasan_sdhci_execute_tuning
                0x00000000fffd0544      0x1b4 drivers/built-in.o
 .text._serial_putc
                0x00000000fffd06f8       0x58 drivers/built-in.o
 .text.serial_post_probe
                0x00000000fffd0750       0x20 drivers/built-in.o
 .text.serial_pre_remove
                0x00000000fffd0770        0x8 drivers/built-in.o
 .text.serial_init
                0x00000000fffd0778      0x15c drivers/built-in.o
                0x00000000fffd0778                serial_init
 .text.serial_putc
                0x00000000fffd08d4       0x18 drivers/built-in.o
                0x00000000fffd08d4                serial_putc
 .text.serial_puts
                0x00000000fffd08ec       0x44 drivers/built-in.o
                0x00000000fffd08ec                serial_puts
 .text.serial_getc
                0x00000000fffd0930       0x50 drivers/built-in.o
                0x00000000fffd0930                serial_getc
 .text.serial_tstc
                0x00000000fffd0980       0x34 drivers/built-in.o
                0x00000000fffd0980                serial_tstc
 .text.arm_dcc_getc
                0x00000000fffd09b4       0x10 drivers/built-in.o
 .text.arm_dcc_putc
                0x00000000fffd09c4       0x2c drivers/built-in.o
 .text.arm_dcc_pending
                0x00000000fffd09f0       0x24 drivers/built-in.o
 .text._uart_zynq_serial_setbrg
                0x00000000fffd0a14       0x8c drivers/built-in.o
 .text._uart_zynq_serial_putc
                0x00000000fffd0aa0       0x28 drivers/built-in.o
 .text.zynq_serial_pending
                0x00000000fffd0ac8       0x44 drivers/built-in.o
 .text.zynq_serial_putc
                0x00000000fffd0b0c       0x28 drivers/built-in.o
 .text.zynq_serial_getc
                0x00000000fffd0b34       0x34 drivers/built-in.o
 .text.zynq_serial_probe
                0x00000000fffd0b68       0x3c drivers/built-in.o
 .text.zynq_serial_setbrg
                0x00000000fffd0ba4       0xc0 drivers/built-in.o
 .text.zynq_serial_ofdata_to_platdata
                0x00000000fffd0c64       0x3c drivers/built-in.o
 .text.printch  0x00000000fffd0ca0       0x44 drivers/built-in.o
                0x00000000fffd0ca0                printch
 .text.printascii
                0x00000000fffd0ce4       0x5c drivers/built-in.o
                0x00000000fffd0ce4                printascii
 .text.debug_uart_init
                0x00000000fffd0d40       0x48 drivers/built-in.o
                0x00000000fffd0d40                debug_uart_init
 .text.spi_flash_post_bind
                0x00000000fffd0d88        0x8 drivers/built-in.o
 .text.spi_flash_std_remove
                0x00000000fffd0d90        0x8 drivers/built-in.o
 .text.spi_flash_std_get_sw_write_prot
                0x00000000fffd0d98       0x14 drivers/built-in.o
 .text.spi_flash_std_erase
                0x00000000fffd0dac       0x2c drivers/built-in.o
 .text.spi_flash_std_write
                0x00000000fffd0dd8       0x3c drivers/built-in.o
 .text.spi_flash_std_read
                0x00000000fffd0e14       0x3c drivers/built-in.o
 .text.spi_flash_std_probe
                0x00000000fffd0e50       0x84 drivers/built-in.o
 .text.spi_flash_dual
                0x00000000fffd0ed4       0x84 drivers/built-in.o
 .text.stm_is_locked_sr
                0x00000000fffd0f58       0x54 drivers/built-in.o
 .text.spi_flash_read_common
                0x00000000fffd0fac       0x78 drivers/built-in.o
                0x00000000fffd0fac                spi_flash_read_common
 .text.read_sr  0x00000000fffd1024       0x38 drivers/built-in.o
 .text.spi_flash_cmd_get_sw_write_prot
                0x00000000fffd105c       0x24 drivers/built-in.o
                0x00000000fffd105c                spi_flash_cmd_get_sw_write_prot
 .text.stm_is_locked
                0x00000000fffd1080       0xdc drivers/built-in.o
                0x00000000fffd1080                stm_is_locked
 .text.read_fsr
                0x00000000fffd115c       0x38 drivers/built-in.o
 .text.spi_flash_wait_till_ready
                0x00000000fffd1194      0x17c drivers/built-in.o
                0x00000000fffd1194                spi_flash_wait_till_ready
 .text.spi_flash_write_common
                0x00000000fffd1310       0xf8 drivers/built-in.o
                0x00000000fffd1310                spi_flash_write_common
 .text.write_bar
                0x00000000fffd1408       0x94 drivers/built-in.o
 .text.clean_bar
                0x00000000fffd149c       0x5c drivers/built-in.o
 .text.spi_flash_cmd_erase_ops
                0x00000000fffd14f8      0x180 drivers/built-in.o
                0x00000000fffd14f8                spi_flash_cmd_erase_ops
 .text.spi_flash_cmd_write_ops
                0x00000000fffd1678      0x1a4 drivers/built-in.o
                0x00000000fffd1678                spi_flash_cmd_write_ops
 .text.write_sr
                0x00000000fffd181c       0x38 drivers/built-in.o
 .text.stm_lock
                0x00000000fffd1854      0x19c drivers/built-in.o
                0x00000000fffd1854                stm_lock
 .text.stm_unlock
                0x00000000fffd19f0      0x1a4 drivers/built-in.o
                0x00000000fffd19f0                stm_unlock
 .text.set_quad_mode.isra.5
                0x00000000fffd1b94      0x2a4 drivers/built-in.o
 .text.spi_flash_copy_mmap
                0x00000000fffd1e38        0x4 drivers/built-in.o
                0x00000000fffd1e38                spi_flash_copy_mmap
 .text.spi_flash_cmd_read_ops
                0x00000000fffd1e3c      0x2e8 drivers/built-in.o
                0x00000000fffd1e3c                spi_flash_cmd_read_ops
 .text.spi_flash_cmd_4B_addr_switch
                0x00000000fffd2124      0x118 drivers/built-in.o
                0x00000000fffd2124                spi_flash_cmd_4B_addr_switch
 .text.spi_flash_decode_fdt
                0x00000000fffd223c       0x60 drivers/built-in.o
                0x00000000fffd223c                spi_flash_decode_fdt
 .text.spi_flash_scan
                0x00000000fffd229c      0x690 drivers/built-in.o
                0x00000000fffd229c                spi_flash_scan
 .text.spi_flash_read_write
                0x00000000fffd292c       0xa8 drivers/built-in.o
 .text.spi_flash_cmd_read
                0x00000000fffd29d4       0x10 drivers/built-in.o
                0x00000000fffd29d4                spi_flash_cmd_read
 .text.spi_flash_cmd
                0x00000000fffd29e4       0x2c drivers/built-in.o
                0x00000000fffd29e4                spi_flash_cmd
 .text.spi_flash_cmd_write
                0x00000000fffd2a10        0xc drivers/built-in.o
                0x00000000fffd2a10                spi_flash_cmd_write
 .text.spi_set_speed_mode
                0x00000000fffd2a1c       0x94 drivers/built-in.o
 .text.spi_child_pre_probe
                0x00000000fffd2ab0       0x4c drivers/built-in.o
 .text.spi_post_probe
                0x00000000fffd2afc       0x40 drivers/built-in.o
 .text.dm_spi_claim_bus
                0x00000000fffd2b3c       0xc4 drivers/built-in.o
                0x00000000fffd2b3c                dm_spi_claim_bus
 .text.dm_spi_release_bus
                0x00000000fffd2c00       0x1c drivers/built-in.o
                0x00000000fffd2c00                dm_spi_release_bus
 .text.dm_spi_xfer
                0x00000000fffd2c1c       0x30 drivers/built-in.o
                0x00000000fffd2c1c                dm_spi_xfer
 .text.spi_claim_bus
                0x00000000fffd2c4c        0x8 drivers/built-in.o
                0x00000000fffd2c4c                spi_claim_bus
 .text.spi_release_bus
                0x00000000fffd2c54        0x8 drivers/built-in.o
                0x00000000fffd2c54                spi_release_bus
 .text.spi_xfer
                0x00000000fffd2c5c        0x8 drivers/built-in.o
                0x00000000fffd2c5c                spi_xfer
 .text.spi_slave_ofdata_to_platdata
                0x00000000fffd2c64      0x164 drivers/built-in.o
                0x00000000fffd2c64                spi_slave_ofdata_to_platdata
 .text.spi_child_post_bind
                0x00000000fffd2dc8       0x44 drivers/built-in.o
 .text.zynqmp_qspi_set_mode
                0x00000000fffd2e0c       0x50 drivers/built-in.o
 .text.zynqmp_qspi_release_bus
                0x00000000fffd2e5c       0x2c drivers/built-in.o
 .text.zynqmp_qspi_claim_bus
                0x00000000fffd2e88       0x2c drivers/built-in.o
 .text.zynqmp_qspi_child_pre_probe
                0x00000000fffd2eb4       0x40 drivers/built-in.o
 .text.zynqmp_qspi_fill_tx_fifo
                0x00000000fffd2ef4      0x15c drivers/built-in.o
 .text.zynqmp_qspi_ofdata_to_platdata
                0x00000000fffd3050       0xb0 drivers/built-in.o
 .text.zynqmp_qspi_probe
                0x00000000fffd3100      0x170 drivers/built-in.o
 .text.zynqmp_qspi_bus_select
                0x00000000fffd3270       0x54 drivers/built-in.o
 .text.zynqmp_qspi_calc_exp.isra.1
                0x00000000fffd32c4       0x78 drivers/built-in.o
 .text.zynqmp_qspi_fill_gen_fifo.isra.3
                0x00000000fffd333c       0xc4 drivers/built-in.o
 .text.zynqmp_qspi_start_dma
                0x00000000fffd3400      0x13c drivers/built-in.o
 .text.zynqmp_qspi_xfer
                0x00000000fffd353c      0x4b8 drivers/built-in.o
                0x00000000fffd353c                zynqmp_qspi_xfer
 .text.zynqmp_qspi_set_tapdelay
                0x00000000fffd39f4       0xb0 drivers/built-in.o
                0x00000000fffd39f4                zynqmp_qspi_set_tapdelay
 .text.zynqmp_qspi_set_speed
                0x00000000fffd3aa4       0xc0 drivers/built-in.o
 .text.blk_post_probe
                0x00000000fffd3b64       0x1c drivers/built-in.o
 .text.blk_select_hwpart
                0x00000000fffd3b80       0x28 drivers/built-in.o
                0x00000000fffd3b80                blk_select_hwpart
 .text.blk_dselect_hwpart
                0x00000000fffd3ba8        0x8 drivers/built-in.o
                0x00000000fffd3ba8                blk_dselect_hwpart
 .text.blk_find_device
                0x00000000fffd3bb0       0xa0 drivers/built-in.o
                0x00000000fffd3bb0                blk_find_device
 .text.blk_dread
                0x00000000fffd3c50       0x20 drivers/built-in.o
                0x00000000fffd3c50                blk_dread
 .text.blk_dwrite
                0x00000000fffd3c70       0x20 drivers/built-in.o
                0x00000000fffd3c70                blk_dwrite
 .text.blk_find_max_devnum
                0x00000000fffd3c90       0x90 drivers/built-in.o
                0x00000000fffd3c90                blk_find_max_devnum
 .text.blk_next_free_devnum
                0x00000000fffd3d20       0x2c drivers/built-in.o
                0x00000000fffd3d20                blk_next_free_devnum
 .text.blk_create_device
                0x00000000fffd3d4c      0x158 drivers/built-in.o
                0x00000000fffd3d4c                blk_create_device
 .text.blk_create_devicef
                0x00000000fffd3ea4       0xc4 drivers/built-in.o
                0x00000000fffd3ea4                blk_create_devicef
 .text.downcase
                0x00000000fffd3f68       0x3c fs/built-in.o
 .text.mkcksum  0x00000000fffd3fa4       0x54 fs/built-in.o
 .text.fat_itr_child
                0x00000000fffd3ff8       0x74 fs/built-in.o
 .text.disk_read
                0x00000000fffd406c       0x64 fs/built-in.o
 .text.get_cluster
                0x00000000fffd40d0      0x174 fs/built-in.o
 .text.read_bootsectandvi
                0x00000000fffd4244      0x134 fs/built-in.o
 .text.fat_itr_root
                0x00000000fffd4378      0x1d8 fs/built-in.o
 .text.disk_write
                0x00000000fffd4550       0x88 fs/built-in.o
 .text.flush_dirty_fat_buffer
                0x00000000fffd45d8       0xb4 fs/built-in.o
 .text.get_fatent
                0x00000000fffd468c      0x184 fs/built-in.o
 .text.next_dent
                0x00000000fffd4810      0x140 fs/built-in.o
 .text.fat_itr_next
                0x00000000fffd4950      0x26c fs/built-in.o
 .text.fat_itr_resolve
                0x00000000fffd4bbc      0x18c fs/built-in.o
 .text.fat_set_blk_dev
                0x00000000fffd4d48       0xcc fs/built-in.o
                0x00000000fffd4d48                fat_set_blk_dev
 .text.fat_register_device
                0x00000000fffd4e14       0x80 fs/built-in.o
                0x00000000fffd4e14                fat_register_device
 .text.file_fat_read_at
                0x00000000fffd4e94      0x338 fs/built-in.o
                0x00000000fffd4e94                file_fat_read_at
 .text.file_fat_read
                0x00000000fffd51cc       0x2c fs/built-in.o
                0x00000000fffd51cc                file_fat_read
 .text.fat_read_file
                0x00000000fffd51f8       0x48 fs/built-in.o
                0x00000000fffd51f8                fat_read_file

.iplt           0x00000000fffd5240        0x0
 .iplt          0x00000000fffd5240        0x0 arch/arm/cpu/armv8/start.o

.rodata         0x00000000fffd5240     0x467f
                0x00000000fffd5240                . = ALIGN (0x8)
 *(SORT_BY_ALIGNMENT(SORT_BY_NAME(.rodata*)))
 .rodata.CSWTCH.35
                0x00000000fffd5240       0x40 disk/built-in.o
 .rodata.arasan_ops
                0x00000000fffd5280       0x30 drivers/built-in.o
                0x00000000fffd5280                arasan_ops
 .rodata.arasan_sdhci_ids
                0x00000000fffd52b0       0x20 drivers/built-in.o
 .rodata.arm_dcc_ids
                0x00000000fffd52d0       0x20 drivers/built-in.o
 .rodata.arm_dcc_ops
                0x00000000fffd52f0       0x40 drivers/built-in.o
 .rodata.clk_fixed_rate_match
                0x00000000fffd5330       0x20 drivers/built-in.o
 .rodata.clk_fixed_rate_ops
                0x00000000fffd5350       0x40 drivers/built-in.o
                0x00000000fffd5350                clk_fixed_rate_ops
 .rodata.fdt_errtable
                0x00000000fffd5390       0x90 lib/built-in.o
 .rodata.generic_simple_bus_ids
                0x00000000fffd5420       0x30 drivers/built-in.o
 .rodata.mmc_blk_ops
                0x00000000fffd5450       0x20 drivers/built-in.o
 .rodata.root_info
                0x00000000fffd5470       0x10 drivers/built-in.o
 .rodata.sdhci_ops
                0x00000000fffd5480       0x28 drivers/built-in.o
                0x00000000fffd5480                sdhci_ops
 .rodata.spi_flash_ids
                0x00000000fffd54a8      0xea0 drivers/built-in.o
                0x00000000fffd54a8                spi_flash_ids
 .rodata.spi_flash_std_ids
                0x00000000fffd6348       0x30 drivers/built-in.o
 .rodata.spi_flash_std_ops
                0x00000000fffd6378       0x20 drivers/built-in.o
 .rodata.uimage_os
                0x00000000fffd6398      0x120 common/built-in.o
 .rodata.zynq_serial_ids
                0x00000000fffd64b8       0x40 drivers/built-in.o
 .rodata.zynq_serial_ops
                0x00000000fffd64f8       0x40 drivers/built-in.o
 .rodata.zynqmp_clk_ids
                0x00000000fffd6538       0x30 drivers/built-in.o
 .rodata.zynqmp_firmware_ids
                0x00000000fffd6568       0x30 drivers/built-in.o
 .rodata.zynqmp_qspi_ids
                0x00000000fffd6598       0x30 drivers/built-in.o
 .rodata.zynqmp_qspi_ops
                0x00000000fffd65c8       0x40 drivers/built-in.o
 .rodata        0x00000000fffd6608       0x14 common/spl/built-in.o
 .rodata        0x00000000fffd661c       0x90 drivers/built-in.o
 .rodata.CSWTCH.28
                0x00000000fffd66ac      0x130 drivers/built-in.o
 .rodata.arasan_sdhci_set_control_reg
                0x00000000fffd67dc        0x4 drivers/built-in.o
 .rodata.crc_table
                0x00000000fffd67e0      0x400 lib/built-in.o
 .rodata.ext_csd_bus_width
                0x00000000fffd6be0       0x3c drivers/built-in.o
 .rodata.fbase  0x00000000fffd6c1c       0x10 drivers/built-in.o
 .rodata.fdt_next_tag
                0x00000000fffd6c2c        0x9 lib/built-in.o
 *fill*         0x00000000fffd6c35        0x3 
 .rodata.freqs.9422
                0x00000000fffd6c38       0x34 drivers/built-in.o
 .rodata.mmc_init
                0x00000000fffd6c6c        0x8 drivers/built-in.o
 .rodata.mmc_modes_by_pref
                0x00000000fffd6c74       0x20 drivers/built-in.o
 .rodata.mmc_set_capacity
                0x00000000fffd6c94        0x8 drivers/built-in.o
 .rodata.mmc_set_card_speed
                0x00000000fffd6c9c        0x6 drivers/built-in.o
 *fill*         0x00000000fffd6ca2        0x2 
 .rodata.mmc_versions.9704
                0x00000000fffd6ca4       0x24 drivers/built-in.o
 .rodata.sd_modes_by_pref
                0x00000000fffd6cc8       0x10 drivers/built-in.o
 .rodata.zynqmp_clk_get_pll_rate
                0x00000000fffd6cd8        0x4 drivers/built-in.o
 .rodata        0x00000000fffd6cdc       0x20 lib/built-in.o
 .rodata.__FUNCTION__.8297
                0x00000000fffd6cfc       0x17 common/built-in.o
 .rodata.__func__.11340
                0x00000000fffd6d13       0x1a drivers/built-in.o
 .rodata.__func__.11429
                0x00000000fffd6d2d       0x19 drivers/built-in.o
 .rodata.__func__.7330
                0x00000000fffd6d46       0x15 common/built-in.o
 .rodata.__func__.7684
                0x00000000fffd6d5b       0x18 common/spl/built-in.o
 .rodata.__func__.7704
                0x00000000fffd6d73       0x13 common/spl/built-in.o
 .rodata.__func__.7712
                0x00000000fffd6d86       0x16 common/spl/built-in.o
 .rodata.__func__.8173
                0x00000000fffd6d9c       0x18 common/built-in.o
 .rodata.__func__.8178
                0x00000000fffd6db4       0x12 disk/built-in.o
 .rodata.__func__.8319
                0x00000000fffd6dc6        0xd disk/built-in.o
 .rodata.__func__.8331
                0x00000000fffd6dd3       0x17 disk/built-in.o
 .rodata.__func__.8336
                0x00000000fffd6dea        0xd disk/built-in.o
 .rodata.__func__.8343
                0x00000000fffd6df7       0x14 common/built-in.o
 .rodata.__func__.9191
                0x00000000fffd6e0b       0x18 drivers/built-in.o
 .rodata.__func__.9201
                0x00000000fffd6e23       0x18 drivers/built-in.o
 .rodata.__func__.9213
                0x00000000fffd6e3b       0x18 drivers/built-in.o
 .rodata.__func__.9228
                0x00000000fffd6e53       0x1f drivers/built-in.o
 .rodata.__func__.9252
                0x00000000fffd6e72       0x18 drivers/built-in.o
 .rodata.__func__.9314
                0x00000000fffd6e8a       0x1f drivers/built-in.o
 .rodata.__func__.9597
                0x00000000fffd6ea9        0xc drivers/built-in.o
 .rodata.__func__.9629
                0x00000000fffd6eb5       0x14 drivers/built-in.o
 .rodata.__func__.9653
                0x00000000fffd6ec9       0x13 drivers/built-in.o
 .rodata.__func__.9667
                0x00000000fffd6edc       0x10 drivers/built-in.o
 .rodata.__func__.9705
                0x00000000fffd6eec        0xb drivers/built-in.o
 .rodata.__func__.9725
                0x00000000fffd6ef7       0x10 drivers/built-in.o
 .rodata.__func__.9743
                0x00000000fffd6f07       0x1c drivers/built-in.o
 .rodata._ctype
                0x00000000fffd6f23      0x100 lib/built-in.o
                0x00000000fffd6f23                _ctype
 .rodata.arasan_sdhci_execute_tuning.str1.1
                0x00000000fffd7023       0x12 drivers/built-in.o
 .rodata.arasan_sdhci_ofdata_to_platdata.str1.1
                0x00000000fffd7035      0x1b5 drivers/built-in.o
                                        0x1c3 (size before relaxing)
 .rodata.arasan_sdhci_probe.str1.1
                0x00000000fffd71ea       0x41 drivers/built-in.o
 .rodata.arasan_zynqmp_dll_reset.isra.1.str1.1
                0x00000000fffd722b       0x41 drivers/built-in.o
                                         0x24 (size before relaxing)
 .rodata.blk_create_devicef.str1.1
                0x00000000fffd722b        0x6 drivers/built-in.o
 .rodata.board_init.str1.1
                0x00000000fffd7231       0x10 board/xilinx/zynqmp/built-in.o
 .rodata.board_init_f.str1.1
                0x00000000fffd7241       0x14 arch/arm/mach-zynqmp/built-in.o
 .rodata.board_init_r.str1.1
                0x00000000fffd7255       0x62 common/spl/built-in.o
 .rodata.clk_fixed_rate_ofdata_to_platdata.str1.1
                0x00000000fffd72b7       0x10 drivers/built-in.o
 .rodata.clk_get_by_index.str1.1
                0x00000000fffd72c7       0xe1 drivers/built-in.o
                                          0x7 (size before relaxing)
 .rodata.clk_get_by_indexed_prop.isra.1.str1.1
                0x00000000fffd72c7        0xd drivers/built-in.o
 .rodata.clk_get_by_name.str1.1
                0x00000000fffd72d4        0xc drivers/built-in.o
 .rodata.clk_set_defaults.str1.1
                0x00000000fffd72e0       0x3c drivers/built-in.o
 .rodata.debug_uart_init.str1.1
                0x00000000fffd731c        0xe drivers/built-in.o
 .rodata.devfdt_get_addr_index.str1.1
                0x00000000fffd732a        0x4 drivers/built-in.o
 .rodata.digits.8462
                0x00000000fffd732a       0x10 lib/built-in.o
 .rodata.disk_write.str1.1
                0x00000000fffd733a       0x18 fs/built-in.o
 .rodata.dm_extended_scan_fdt.str1.1
                0x00000000fffd7352       0x12 drivers/built-in.o
 .rodata.dm_fdt_pre_reloc.str1.1
                0x00000000fffd7364       0x22 drivers/built-in.o
 .rodata.dm_scan_fdt_node.str1.1
                0x00000000fffd7386       0x12 drivers/built-in.o
                                         0x10 (size before relaxing)
 .rodata.fat_itr_resolve.str1.1
                0x00000000fffd7386        0x3 fs/built-in.o
                                          0x5 (size before relaxing)
 .rodata.fat_itr_root.str1.1
                0x00000000fffd7389       0x85 fs/built-in.o
 .rodata.fat_read_file.str1.1
                0x00000000fffd740e       0x1e fs/built-in.o
 .rodata.fat_register_device.str1.1
                0x00000000fffd742c       0x2b fs/built-in.o
 .rodata.fat_set_blk_dev.str1.1
                0x00000000fffd7457        0x3 fs/built-in.o
                                          0xd (size before relaxing)
 .rodata.fdt_address_cells.str1.1
                0x00000000fffd745a        0xf lib/built-in.o
 .rodata.fdt_find_or_add_subnode.str1.1
                0x00000000fffd7469        0xc common/built-in.o
 .rodata.fdt_fixup_memory_banks.str1.1
                0x00000000fffd7475       0x85 common/built-in.o
                                         0x94 (size before relaxing)
 .rodata.fdt_get_alias_namelen.str1.1
                0x00000000fffd74fa        0x9 lib/built-in.o
 .rodata.fdt_get_phandle.str1.1
                0x00000000fffd7503        0xe lib/built-in.o
                                         0x16 (size before relaxing)
 .rodata.fdt_node_check_compatible.str1.1
                0x00000000fffd7511        0xb lib/built-in.o
 .rodata.fdt_record_loadable.str1.1
                0x00000000fffd751c       0x85 common/built-in.o
                                         0x2e (size before relaxing)
 .rodata.fdt_size_cells.str1.1
                0x00000000fffd751c        0xc lib/built-in.o
 .rodata.fdt_strerror.str1.1
                0x00000000fffd7528       0x31 lib/built-in.o
 .rodata.fdtdec_add_aliases_for_id.str1.1
                0x00000000fffd7559        0x9 lib/built-in.o
 .rodata.fdtdec_get_chosen_prop.str1.1
                0x00000000fffd7559        0x8 lib/built-in.o
 .rodata.fdtdec_get_is_enabled.str1.1
                0x00000000fffd7561        0xc lib/built-in.o
 .rodata.fdtdec_prepare_fdt.str1.1
                0x00000000fffd756d        0xd lib/built-in.o
 .rodata.fdtdec_setup_mem_size_base.str1.1
                0x00000000fffd757a        0x8 lib/built-in.o
                                          0xc (size before relaxing)
 .rodata.file_fat_read_at.str1.1
                0x00000000fffd7582       0x2a fs/built-in.o
 .rodata.find_mmc_device.str1.1
                0x00000000fffd75ac       0x19 drivers/built-in.o
 .rodata.fit_find_config_node.str1.1
                0x00000000fffd75c5       0x3c common/built-in.o
                                         0x48 (size before relaxing)
 .rodata.fit_image_get_address.str1.1
                0x00000000fffd7601       0x1d common/built-in.o
 .rodata.fit_image_get_data.str1.1
                0x00000000fffd761e        0x5 common/built-in.o
 .rodata.fit_image_get_data_offset.str1.1
                0x00000000fffd7623        0xc common/built-in.o
 .rodata.fit_image_get_data_position.str1.1
                0x00000000fffd762f        0xe common/built-in.o
 .rodata.fit_image_get_data_size.str1.1
                0x00000000fffd763d        0xa common/built-in.o
 .rodata.fit_image_get_load.str1.1
                0x00000000fffd7647        0xa common/built-in.o
                                          0x5 (size before relaxing)
 .rodata.fit_image_get_os.str1.1
                0x00000000fffd7647        0x3 common/built-in.o
 .rodata.genimg_get_os_id.str1.1
                0x00000000fffd7647      0x7d2 common/built-in.o
                                          0x3 (size before relaxing)
 .rodata.get_fatent.str1.1
                0x00000000fffd7647       0x22 fs/built-in.o
 .rodata.get_next_memory_node.str1.1
                0x00000000fffd7669       0x13 lib/built-in.o
 .rodata.hang.str1.1
                0x00000000fffd7669       0x2a lib/built-in.o
 .rodata.hex_asc
                0x00000000fffd7693       0x11 lib/built-in.o
                0x00000000fffd7693                hex_asc
 .rodata.is_gpt_valid.str1.1
                0x00000000fffd76a4       0xea disk/built-in.o
 .rodata.lists_bind_fdt.str1.1
                0x00000000fffd778e        0xb drivers/built-in.o
 .rodata.mmc_bind.str1.1
                0x00000000fffd778e        0x8 drivers/built-in.o
                                          0xc (size before relaxing)
 .rodata.mmc_bread.str1.1
                0x00000000fffd7796       0x47 drivers/built-in.o
 .rodata.mmc_get_op_cond.str1.1
                0x00000000fffd77dd       0x29 drivers/built-in.o
 .rodata.mmc_init.str1.1
                0x00000000fffd7806       0x6d drivers/built-in.o
 .rodata.mmc_initialize.str1.1
                0x00000000fffd7873       0x17 drivers/built-in.o
 .rodata.mmc_send_status.str1.1
                0x00000000fffd788a       0x32 drivers/built-in.o
 .rodata.mmc_start_init.str1.1
                0x00000000fffd78bc       0x16 drivers/built-in.o
 .rodata.mode2timing
                0x00000000fffd78d2        0xc drivers/built-in.o
 .rodata.multipliers
                0x00000000fffd78de       0x10 drivers/built-in.o
 .rodata.part_get_info_efi.str1.1
                0x00000000fffd78ee       0x6c disk/built-in.o
                                         0x76 (size before relaxing)
 .rodata.part_get_info_extended.str1.1
                0x00000000fffd795a        0xa disk/built-in.o
                                         0x11 (size before relaxing)
 .rodata.part_set_generic_name.str1.1
                0x00000000fffd7964        0xa disk/built-in.o
 .rodata.preloader_console_init.str1.1
                0x00000000fffd796e       0x43 common/spl/built-in.o
 .rodata.print_partition_extended.str1.1
                0x00000000fffd79b1       0x83 disk/built-in.o
                                         0x84 (size before relaxing)
 .rodata.read_bootsectandvi.str1.1
                0x00000000fffd7a34       0x1b fs/built-in.o
 .rodata.sdhci_probe.str1.1
                0x00000000fffd7a4f       0x48 drivers/built-in.o
 .rodata.sdhci_reset.isra.3.str1.1
                0x00000000fffd7a97       0x21 drivers/built-in.o
 .rodata.sdhci_send_command.str1.1
                0x00000000fffd7ab8       0x76 drivers/built-in.o
 .rodata.sdhci_set_clock.isra.5.str1.1
                0x00000000fffd7b2e       0x4e drivers/built-in.o
 .rodata.sdhci_setup_cfg.str1.1
                0x00000000fffd7b7c       0x33 drivers/built-in.o
 .rodata.serial_init.str1.1
                0x00000000fffd7baf       0x2b drivers/built-in.o
 .rodata.set_quad_mode.isra.5.str1.1
                0x00000000fffd7bda       0x26 drivers/built-in.o
 .rodata.simple_bus_post_bind.str1.1
                0x00000000fffd7c00        0x7 drivers/built-in.o
 .rodata.spi_flash_cmd_erase_ops.str1.1
                0x00000000fffd7c07       0x63 drivers/built-in.o
 .rodata.spi_flash_cmd_write_ops.str1.1
                0x00000000fffd7c6a       0x30 drivers/built-in.o
 .rodata.spi_flash_decode_fdt.str1.1
                0x00000000fffd7c9a        0xb drivers/built-in.o
 .rodata.spi_flash_scan.str1.1
                0x00000000fffd7ca5       0xa3 drivers/built-in.o
 .rodata.spi_flash_std_probe.str1.1
                0x00000000fffd7d48       0x1c drivers/built-in.o
 .rodata.spi_flash_wait_till_ready.str1.1
                0x00000000fffd7d64        0xe drivers/built-in.o
 .rodata.spi_post_probe.str1.1
                0x00000000fffd7d72       0x12 drivers/built-in.o
 .rodata.spi_set_speed_mode.str1.1
                0x00000000fffd7d84       0x35 drivers/built-in.o
 .rodata.spi_slave_ofdata_to_platdata.str1.1
                0x00000000fffd7db9       0x5a drivers/built-in.o
                                         0x5e (size before relaxing)
 .rodata.spl_boot_device.str1.1
                0x00000000fffd7e13       0x18 arch/arm/mach-zynqmp/built-in.o
 .rodata.spl_fit_append_fdt.str1.1
                0x00000000fffd7e2b        0x4 common/spl/built-in.o
 .rodata.spl_fit_get_image_name.isra.0.str1.1
                0x00000000fffd7e2f       0x39 common/spl/built-in.o
 .rodata.spl_fit_images_get_entry.str1.1
                0x00000000fffd7e68       0x16 common/spl/built-in.o
 .rodata.spl_fixup_fdt.str1.1
                0x00000000fffd7e7e       0x51 common/spl/built-in.o
 .rodata.spl_invoke_atf.str1.1
                0x00000000fffd7ecf        0xc common/spl/built-in.o
                                          0xf (size before relaxing)
 .rodata.spl_load_fit_image.str1.1
                0x00000000fffd7edb       0x22 common/spl/built-in.o
 .rodata.spl_load_image_fat.str1.1
                0x00000000fffd7efd       0x41 common/spl/built-in.o
 .rodata.spl_load_image_fat_os.str1.1
                0x00000000fffd7f3e       0x18 common/spl/built-in.o
 .rodata.spl_load_simple_fit.str1.1
                0x00000000fffd7f56       0x1c common/spl/built-in.o
                                         0x2a (size before relaxing)
 .rodata.spl_mmc_load_image.str1.1
                0x00000000fffd7f72      0x181 common/spl/built-in.o
 .rodata.spl_parse_image_header.str1.1
                0x00000000fffd80f3        0x6 common/spl/built-in.o
 .rodata.spl_set_header_raw_uboot.str1.1
                0x00000000fffd80f9        0x7 common/spl/built-in.o
 .rodata.str1.1
                0x00000000fffd8100       0x15 common/spl/built-in.o
 .rodata.str1.1
                0x00000000fffd8115      0x7d2 common/built-in.o
                                        0x833 (size before relaxing)
 .rodata.str1.1
                0x00000000fffd88e7      0x4ae lib/built-in.o
 .rodata.str1.1
                0x00000000fffd8d95       0x1b disk/built-in.o
                                         0x1e (size before relaxing)
 .rodata.str1.1
                0x00000000fffd8db0      0x8ea drivers/built-in.o
                                        0x93a (size before relaxing)
 .rodata.string.str1.1
                0x00000000fffd969a        0x7 lib/built-in.o
 .rodata.test_block_type.str1.1
                0x00000000fffd96a1        0xa disk/built-in.o
 .rodata.uuid_bin_to_str.str1.1
                0x00000000fffd96ab       0x2a lib/built-in.o
                                          0x5 (size before relaxing)
 .rodata.validate_gpt_entries.str1.1
                0x00000000fffd96ab       0x40 disk/built-in.o
 .rodata.validate_gpt_header.str1.1
                0x00000000fffd96eb       0xe1 disk/built-in.o
 .rodata.zynq_serial_setbrg.str1.1
                0x00000000fffd97cc       0x41 drivers/built-in.o
 .rodata.zynqmp_clk_get_pll_rate.str1.1
                0x00000000fffd97cc       0x10 drivers/built-in.o
                                         0x12 (size before relaxing)
 .rodata.zynqmp_clk_get_rate.str1.1
                0x00000000fffd97cc       0x15 drivers/built-in.o
 .rodata.zynqmp_clk_probe.str1.1
                0x00000000fffd97e1       0x41 drivers/built-in.o
 .rodata.zynqmp_clk_set_rate.str1.1
                0x00000000fffd9822       0x13 drivers/built-in.o
 .rodata.zynqmp_get_freq_by_name.str1.1
                0x00000000fffd9835       0x29 drivers/built-in.o
 .rodata.zynqmp_qspi_fill_gen_fifo.isra.3.str1.1
                0x00000000fffd985e        0xc drivers/built-in.o
 .rodata.zynqmp_qspi_fill_tx_fifo.str1.1
                0x00000000fffd986a       0x14 drivers/built-in.o
 .rodata.zynqmp_qspi_ofdata_to_platdata.str1.1
                0x00000000fffd987e       0x1f drivers/built-in.o
 .rodata.zynqmp_qspi_probe.str1.1
                0x00000000fffd989d       0x41 drivers/built-in.o
 .rodata.zynqmp_qspi_start_dma.str1.1
                0x00000000fffd989d       0x12 drivers/built-in.o
 .rodata.zynqmp_qspi_xfer.str1.1
                0x00000000fffd98af       0x10 drivers/built-in.o

.rela.dyn       0x00000000fffd98c0        0x0
 .rela.iplt     0x00000000fffd98c0        0x0 arch/arm/cpu/armv8/start.o
 .rela.text.board_fdt_blob_setup
                0x00000000fffd98c0        0x0 arch/arm/cpu/armv8/start.o

.data           0x00000000fffd98c0      0xa80
                0x00000000fffd98c0                . = ALIGN (0x8)
 *(.data*)
 .data.zynqmp_mem_map
                0x00000000fffd98c0      0x140 arch/arm/mach-zynqmp/built-in.o
 .data          0x00000000fffd9a00       0xc8 common/spl/built-in.o
 .data.av_      0x00000000fffd9ac8      0x810 common/built-in.o
 .data.sbrk_base
                0x00000000fffda2d8        0x8 common/built-in.o
 .data.trim_threshold
                0x00000000fffda2e0        0x8 common/built-in.o
 .data.system_guid
                0x00000000fffda2e8       0x10 disk/built-in.o
 .data.zynqmp_clk_ops
                0x00000000fffda2f8       0x40 drivers/built-in.o
 .data.cmd_timeout.9652
                0x00000000fffda338        0x4 drivers/built-in.o
 .data.cs_change.11546
                0x00000000fffda33c        0x4 drivers/built-in.o

.igot.plt       0x00000000fffda340        0x0
 .igot.plt      0x00000000fffda340        0x0 arch/arm/cpu/armv8/start.o

.u_boot_list    0x00000000fffda340      0xca0
                0x00000000fffda340                . = ALIGN (0x8)
 *(SORT_BY_NAME(.u_boot_list*))
 .u_boot_list_2_cmd_1
                0x00000000fffda340        0x0 common/built-in.o
 .u_boot_list_2_cmd_3
                0x00000000fffda340        0x0 common/built-in.o
 .u_boot_list_2_driver_1
                0x00000000fffda340        0x0 drivers/built-in.o
 .u_boot_list_2_driver_2_arasan_sdhci_drv
                0x00000000fffda340       0x78 drivers/built-in.o
                0x00000000fffda340                _u_boot_list_2_driver_2_arasan_sdhci_drv
 .u_boot_list_2_driver_2_clk_fixed_rate
                0x00000000fffda3b8       0x78 drivers/built-in.o
                0x00000000fffda3b8                _u_boot_list_2_driver_2_clk_fixed_rate
 .u_boot_list_2_driver_2_mmc
                0x00000000fffda430       0x78 drivers/built-in.o
                0x00000000fffda430                _u_boot_list_2_driver_2_mmc
 .u_boot_list_2_driver_2_mmc_blk
                0x00000000fffda4a8       0x78 drivers/built-in.o
                0x00000000fffda4a8                _u_boot_list_2_driver_2_mmc_blk
 .u_boot_list_2_driver_2_root_driver
                0x00000000fffda520       0x78 drivers/built-in.o
                0x00000000fffda520                _u_boot_list_2_driver_2_root_driver
 .u_boot_list_2_driver_2_serial_dcc
                0x00000000fffda598       0x78 drivers/built-in.o
                0x00000000fffda598                _u_boot_list_2_driver_2_serial_dcc
 .u_boot_list_2_driver_2_serial_zynq
                0x00000000fffda610       0x78 drivers/built-in.o
                0x00000000fffda610                _u_boot_list_2_driver_2_serial_zynq
 .u_boot_list_2_driver_2_simple_bus_drv
                0x00000000fffda688       0x78 drivers/built-in.o
                0x00000000fffda688                _u_boot_list_2_driver_2_simple_bus_drv
 .u_boot_list_2_driver_2_spi_flash_std
                0x00000000fffda700       0x78 drivers/built-in.o
                0x00000000fffda700                _u_boot_list_2_driver_2_spi_flash_std
 .u_boot_list_2_driver_2_spi_generic_drv
                0x00000000fffda778       0x78 drivers/built-in.o
                0x00000000fffda778                _u_boot_list_2_driver_2_spi_generic_drv
 .u_boot_list_2_driver_2_zynqmp_clk
                0x00000000fffda7f0       0x78 drivers/built-in.o
                0x00000000fffda7f0                _u_boot_list_2_driver_2_zynqmp_clk
 .u_boot_list_2_driver_2_zynqmp_firmware
                0x00000000fffda868       0x78 drivers/built-in.o
                0x00000000fffda868                _u_boot_list_2_driver_2_zynqmp_firmware
 .u_boot_list_2_driver_2_zynqmp_qspi
                0x00000000fffda8e0       0x78 drivers/built-in.o
                0x00000000fffda8e0                _u_boot_list_2_driver_2_zynqmp_qspi
 .u_boot_list_2_driver_3
                0x00000000fffda958        0x0 drivers/built-in.o
 .u_boot_list_2_driver_info_1
                0x00000000fffda958        0x0 drivers/built-in.o
 .u_boot_list_2_driver_info_3
                0x00000000fffda958        0x0 drivers/built-in.o
 .u_boot_list_2_env_driver_1
                0x00000000fffda958        0x0 env/built-in.o
 .u_boot_list_2_env_driver_3
                0x00000000fffda958        0x0 env/built-in.o
 .u_boot_list_2_fit_loadable_1
                0x00000000fffda958        0x0 common/built-in.o
 .u_boot_list_2_fit_loadable_3
                0x00000000fffda958        0x0 common/built-in.o
 .u_boot_list_2_part_driver_1
                0x00000000fffda958        0x0 disk/built-in.o
 .u_boot_list_2_part_driver_2_a_efi
                0x00000000fffda958       0x28 disk/built-in.o
                0x00000000fffda958                _u_boot_list_2_part_driver_2_a_efi
 .u_boot_list_2_part_driver_2_dos
                0x00000000fffda980       0x28 disk/built-in.o
                0x00000000fffda980                _u_boot_list_2_part_driver_2_dos
 .u_boot_list_2_part_driver_3
                0x00000000fffda9a8        0x0 disk/built-in.o
 .u_boot_list_2_spl_image_loader_1
                0x00000000fffda9a8        0x0 common/spl/built-in.o
 .u_boot_list_2_spl_image_loader_2_spl_mmc_load_image0BOOT_DEVICE_MMC1
                0x00000000fffda9a8       0x18 common/spl/built-in.o
                0x00000000fffda9a8                _u_boot_list_2_spl_image_loader_2_spl_mmc_load_image0BOOT_DEVICE_MMC1
 .u_boot_list_2_spl_image_loader_2_spl_mmc_load_image0BOOT_DEVICE_MMC2
                0x00000000fffda9c0       0x18 common/spl/built-in.o
                0x00000000fffda9c0                _u_boot_list_2_spl_image_loader_2_spl_mmc_load_image0BOOT_DEVICE_MMC2
 .u_boot_list_2_spl_image_loader_2_spl_mmc_load_image0BOOT_DEVICE_MMC2_2
                0x00000000fffda9d8       0x18 common/spl/built-in.o
                0x00000000fffda9d8                _u_boot_list_2_spl_image_loader_2_spl_mmc_load_image0BOOT_DEVICE_MMC2_2
 .u_boot_list_2_spl_image_loader_2_spl_ram_load_image0BOOT_DEVICE_RAM
                0x00000000fffda9f0       0x18 common/spl/built-in.o
                0x00000000fffda9f0                _u_boot_list_2_spl_image_loader_2_spl_ram_load_image0BOOT_DEVICE_RAM
 .u_boot_list_2_spl_image_loader_3
                0x00000000fffdaa08        0x0 common/spl/built-in.o
 .u_boot_list_2_uclass_1
                0x00000000fffdaa08        0x0 drivers/built-in.o
 .u_boot_list_2_uclass_2_blk
                0x00000000fffdaa08       0x88 drivers/built-in.o
                0x00000000fffdaa08                _u_boot_list_2_uclass_2_blk
 .u_boot_list_2_uclass_2_clk
                0x00000000fffdaa90       0x88 drivers/built-in.o
                0x00000000fffdaa90                _u_boot_list_2_uclass_2_clk
 .u_boot_list_2_uclass_2_firmware
                0x00000000fffdab18       0x88 drivers/built-in.o
                0x00000000fffdab18                _u_boot_list_2_uclass_2_firmware
 .u_boot_list_2_uclass_2_misc
                0x00000000fffdaba0       0x88 drivers/built-in.o
                0x00000000fffdaba0                _u_boot_list_2_uclass_2_misc
 .u_boot_list_2_uclass_2_mmc
                0x00000000fffdac28       0x88 drivers/built-in.o
                0x00000000fffdac28                _u_boot_list_2_uclass_2_mmc
 .u_boot_list_2_uclass_2_root
                0x00000000fffdacb0       0x88 drivers/built-in.o
                0x00000000fffdacb0                _u_boot_list_2_uclass_2_root
 .u_boot_list_2_uclass_2_serial
                0x00000000fffdad38       0x88 drivers/built-in.o
                0x00000000fffdad38                _u_boot_list_2_uclass_2_serial
 .u_boot_list_2_uclass_2_simple_bus
                0x00000000fffdadc0       0x88 drivers/built-in.o
                0x00000000fffdadc0                _u_boot_list_2_uclass_2_simple_bus
 .u_boot_list_2_uclass_2_spi
                0x00000000fffdae48       0x88 drivers/built-in.o
                0x00000000fffdae48                _u_boot_list_2_uclass_2_spi
 .u_boot_list_2_uclass_2_spi_flash
                0x00000000fffdaed0       0x88 drivers/built-in.o
                0x00000000fffdaed0                _u_boot_list_2_uclass_2_spi_flash
 .u_boot_list_2_uclass_2_spi_generic
                0x00000000fffdaf58       0x88 drivers/built-in.o
                0x00000000fffdaf58                _u_boot_list_2_uclass_2_spi_generic
 .u_boot_list_2_uclass_3
                0x00000000fffdafe0        0x0 drivers/built-in.o

.image_copy_end
                0x00000000fffdafe0        0x0
                0x00000000fffdafe0                . = ALIGN (0x8)
 *(.__image_copy_end)

.end            0x00000000fffdafe0        0x0
                0x00000000fffdafe0                . = ALIGN (0x8)
 *(.__end)
 .__end         0x00000000fffdafe0        0x0 arch/arm/lib/built-in.o
                0x00000000fffdafe0                _end
                0x00000000fffdafe0                _image_binary_end = .

.bss_start      0x0000000000000000        0x0
                0x0000000000000000                . = ALIGN (0x8)
 *(.__bss_start)
 .__bss_start   0x0000000000000000        0x0 arch/arm/lib/built-in.o
                0x0000000000000000                __bss_start

.bss            0x0000000000000000    0x10308
 *(.bss*)
 .bss.bl31_params_mem
                0x0000000000000000      0x180 common/spl/built-in.o
 .bss.fat_registered
                0x0000000000000180        0x4 common/spl/built-in.o
 .bss.ctrlc_disabled
                0x0000000000000184        0x4 common/built-in.o
 .bss.ctrlc_was_pressed
                0x0000000000000188        0x4 common/built-in.o
 .bss.current_mallinfo
                0x000000000000018c       0x28 common/built-in.o
 *fill*         0x00000000000001b4        0x4 
 .bss.max_sbrked_mem
                0x00000000000001b8        0x8 common/built-in.o
 .bss.max_total_mem
                0x00000000000001c0        0x8 common/built-in.o
 .bss.mem_malloc_brk
                0x00000000000001c8        0x8 common/built-in.o
                0x00000000000001c8                mem_malloc_brk
 .bss.mem_malloc_end
                0x00000000000001d0        0x8 common/built-in.o
                0x00000000000001d0                mem_malloc_end
 .bss.mem_malloc_start
                0x00000000000001d8        0x8 common/built-in.o
                0x00000000000001d8                mem_malloc_start
 .bss.top_pad   0x00000000000001e0        0x8 common/built-in.o
 .bss.stdio_devices
                0x00000000000001e8       0x18 common/built-in.o
                0x00000000000001e8                stdio_devices
 .bss.name.8121
                0x0000000000000200       0x25 disk/built-in.o
 *fill*         0x0000000000000225        0x3 
 .bss.initialized.9817
                0x0000000000000228        0x4 drivers/built-in.o
 *fill*         0x000000000000022c        0x4 
 .bss.aligned_buffer
                0x0000000000000230        0x8 drivers/built-in.o
                0x0000000000000230                aligned_buffer
 .bss.last_cmd  0x0000000000000238        0x1 drivers/built-in.o
 *fill*         0x0000000000000239        0x7 
 .bss.cur_dev   0x0000000000000240        0x8 fs/built-in.o
 .bss.cur_part_info
                0x0000000000000248       0x88 fs/built-in.o
 *fill*         0x00000000000002d0       0x30 
 .bss.get_contents_vfatname_block
                0x0000000000000300    0x10000 fs/built-in.o
                0x0000000000000300                get_contents_vfatname_block
 .bss.total_sector
                0x0000000000010300        0x4 fs/built-in.o
                0x0000000000010308                . = ALIGN (0x8)
 *fill*         0x0000000000010304        0x4 

.bss_end        0x0000000000010308        0x0
 *(.__bss_end)
 .__bss_end     0x0000000000010308        0x0 arch/arm/lib/built-in.o
                0x0000000000010308                __bss_end

/DISCARD/
 *(.dynsym)
 *(.dynstr*)
 *(.dynamic*)
 *(.plt*)
 *(.interp*)
 *(.gnu*)
Address of section .text set to 0xfffc0000
LOAD arch/arm/cpu/armv8/start.o
START GROUP
LOAD arch/arm/mach-zynqmp/built-in.o
LOAD arch/arm/cpu/armv8/built-in.o
LOAD arch/arm/cpu/built-in.o
LOAD arch/arm/lib/built-in.o
LOAD board/xilinx/zynqmp/built-in.o
LOAD common/spl/built-in.o
LOAD common/init/built-in.o
LOAD common/built-in.o
LOAD cmd/built-in.o
LOAD env/built-in.o
LOAD lib/built-in.o
LOAD disk/built-in.o
LOAD drivers/built-in.o
LOAD dts/built-in.o
LOAD fs/built-in.o
END GROUP
LOAD /usr/lib/gcc-cross/aarch64-linux-gnu/7/libgcc.a
OUTPUT(u-boot-spl elf64-littleaarch64)

.debug_line     0x0000000000000000    0x1c373
 .debug_line    0x0000000000000000       0x87 arch/arm/cpu/armv8/start.o
 .debug_line    0x0000000000000087      0xf9e arch/arm/mach-zynqmp/built-in.o
 .debug_line    0x0000000000001025     0x1238 arch/arm/cpu/armv8/built-in.o
 .debug_line    0x000000000000225d     0x1147 arch/arm/lib/built-in.o
 .debug_line    0x00000000000033a4      0xf49 board/xilinx/zynqmp/built-in.o
 .debug_line    0x00000000000042ed     0x1316 common/spl/built-in.o
 .debug_line    0x0000000000005603      0x215 common/init/built-in.o
 .debug_line    0x0000000000005818     0x4b6e common/built-in.o
 .debug_line    0x000000000000a386      0x5fc env/built-in.o
 .debug_line    0x000000000000a982     0x654d lib/built-in.o
 .debug_line    0x0000000000010ecf     0x1137 disk/built-in.o
 .debug_line    0x0000000000012006     0x9030 drivers/built-in.o
 .debug_line    0x000000000001b036     0x133d fs/built-in.o

.debug_info     0x0000000000000000    0xc7e8c
 .debug_info    0x0000000000000000       0x2e arch/arm/cpu/armv8/start.o
 .debug_info    0x000000000000002e     0x6995 arch/arm/mach-zynqmp/built-in.o
 .debug_info    0x00000000000069c3     0x5bf9 arch/arm/cpu/armv8/built-in.o
 .debug_info    0x000000000000c5bc     0x72a3 arch/arm/lib/built-in.o
 .debug_info    0x000000000001385f     0xa255 board/xilinx/zynqmp/built-in.o
 .debug_info    0x000000000001dab4     0xa626 common/spl/built-in.o
 .debug_info    0x00000000000280da     0x1082 common/init/built-in.o
 .debug_info    0x000000000002915c    0x21d97 common/built-in.o
 .debug_info    0x000000000004aef3     0x2dcc env/built-in.o
 .debug_info    0x000000000004dcbf    0x2326e lib/built-in.o
 .debug_info    0x0000000000070f2d     0x7255 disk/built-in.o
 .debug_info    0x0000000000078182    0x49061 drivers/built-in.o
 .debug_info    0x00000000000c11e3     0x6ca9 fs/built-in.o

.debug_abbrev   0x0000000000000000    0x1a309
 .debug_abbrev  0x0000000000000000       0x14 arch/arm/cpu/armv8/start.o
 .debug_abbrev  0x0000000000000014     0x11af arch/arm/mach-zynqmp/built-in.o
 .debug_abbrev  0x00000000000011c3      0xea6 arch/arm/cpu/armv8/built-in.o
 .debug_abbrev  0x0000000000002069     0x1305 arch/arm/lib/built-in.o
 .debug_abbrev  0x000000000000336e      0xdd5 board/xilinx/zynqmp/built-in.o
 .debug_abbrev  0x0000000000004143     0x1a87 common/spl/built-in.o
 .debug_abbrev  0x0000000000005bca      0x2d7 common/init/built-in.o
 .debug_abbrev  0x0000000000005ea1     0x4117 common/built-in.o
 .debug_abbrev  0x0000000000009fb8      0x754 env/built-in.o
 .debug_abbrev  0x000000000000a70c     0x5a30 lib/built-in.o
 .debug_abbrev  0x000000000001013c      0xf26 disk/built-in.o
 .debug_abbrev  0x0000000000011062     0x893c drivers/built-in.o
 .debug_abbrev  0x000000000001999e      0x96b fs/built-in.o

.debug_aranges  0x0000000000000000     0x57d0
 .debug_aranges
                0x0000000000000000       0x30 arch/arm/cpu/armv8/start.o
 .debug_aranges
                0x0000000000000030      0x2f0 arch/arm/mach-zynqmp/built-in.o
 .debug_aranges
                0x0000000000000320      0x470 arch/arm/cpu/armv8/built-in.o
 .debug_aranges
                0x0000000000000790      0x340 arch/arm/lib/built-in.o
 .debug_aranges
                0x0000000000000ad0      0x190 board/xilinx/zynqmp/built-in.o
 .debug_aranges
                0x0000000000000c60      0x300 common/spl/built-in.o
 .debug_aranges
                0x0000000000000f60       0x50 common/init/built-in.o
 .debug_aranges
                0x0000000000000fb0      0xf90 common/built-in.o
 .debug_aranges
                0x0000000000001f40      0x120 env/built-in.o
 .debug_aranges
                0x0000000000002060     0x15f0 lib/built-in.o
 .debug_aranges
                0x0000000000003650      0x2b0 disk/built-in.o
 .debug_aranges
                0x0000000000003900     0x1c00 drivers/built-in.o
 .debug_aranges
                0x0000000000005500      0x2d0 fs/built-in.o

.debug_str      0x0000000000000000     0xeff8
 .debug_str     0x0000000000000000       0x53 arch/arm/cpu/armv8/start.o
 .debug_str     0x0000000000000053     0x1686 arch/arm/mach-zynqmp/built-in.o
                                       0x52a5 (size before relaxing)
 .debug_str     0x00000000000016d9      0x590 arch/arm/cpu/armv8/built-in.o
                                       0x47dc (size before relaxing)
 .debug_str     0x0000000000001c69      0x40b arch/arm/lib/built-in.o
                                       0x6bbd (size before relaxing)
 .debug_str     0x0000000000002074      0x891 board/xilinx/zynqmp/built-in.o
                                       0x4327 (size before relaxing)
 .debug_str     0x0000000000002905     0x1b32 common/spl/built-in.o
                                       0x8be0 (size before relaxing)
 .debug_str     0x0000000000004437       0x55 common/init/built-in.o
                                       0x1192 (size before relaxing)
 .debug_str     0x000000000000448c     0x2d44 common/built-in.o
                                      0x169b1 (size before relaxing)
 .debug_str     0x00000000000071d0      0x291 env/built-in.o
                                       0x26fc (size before relaxing)
 .debug_str     0x0000000000007461     0x2390 lib/built-in.o
                                      0x165ce (size before relaxing)
 .debug_str     0x00000000000097f1      0x925 disk/built-in.o
                                       0x3d52 (size before relaxing)
 .debug_str     0x000000000000a116     0x4719 drivers/built-in.o
                                      0x30a2d (size before relaxing)
 .debug_str     0x000000000000e82f      0x7c9 fs/built-in.o
                                       0x2851 (size before relaxing)

.comment        0x0000000000000000       0x30
 .comment       0x0000000000000000       0x30 arch/arm/mach-zynqmp/built-in.o
                                        0x126 (size before relaxing)
 .comment       0x0000000000000030       0xf5 arch/arm/cpu/armv8/built-in.o
 .comment       0x0000000000000030      0x1b9 arch/arm/lib/built-in.o
 .comment       0x0000000000000030       0xc4 board/xilinx/zynqmp/built-in.o
 .comment       0x0000000000000030      0x126 common/spl/built-in.o
 .comment       0x0000000000000030       0x31 common/init/built-in.o
 .comment       0x0000000000000030      0x310 common/built-in.o
 .comment       0x0000000000000030       0x62 env/built-in.o
 .comment       0x0000000000000030      0x682 lib/built-in.o
 .comment       0x0000000000000030       0x93 disk/built-in.o
 .comment       0x0000000000000030      0x651 drivers/built-in.o
 .comment       0x0000000000000030       0x62 fs/built-in.o

.note.GNU-stack
                0x0000000000000000        0x0
 .note.GNU-stack
                0x0000000000000000        0x0 arch/arm/mach-zynqmp/built-in.o
 .note.GNU-stack
                0x0000000000000000        0x0 arch/arm/cpu/armv8/built-in.o
 .note.GNU-stack
                0x0000000000000000        0x0 arch/arm/lib/built-in.o
 .note.GNU-stack
                0x0000000000000000        0x0 board/xilinx/zynqmp/built-in.o
 .note.GNU-stack
                0x0000000000000000        0x0 common/spl/built-in.o
 .note.GNU-stack
                0x0000000000000000        0x0 common/init/built-in.o
 .note.GNU-stack
                0x0000000000000000        0x0 common/built-in.o
 .note.GNU-stack
                0x0000000000000000        0x0 env/built-in.o
 .note.GNU-stack
                0x0000000000000000        0x0 lib/built-in.o
 .note.GNU-stack
                0x0000000000000000        0x0 disk/built-in.o
 .note.GNU-stack
                0x0000000000000000        0x0 drivers/built-in.o
 .note.GNU-stack
                0x0000000000000000        0x0 fs/built-in.o

.debug_frame    0x0000000000000000     0xd260
 .debug_frame   0x0000000000000000      0x4d8 arch/arm/mach-zynqmp/built-in.o
 .debug_frame   0x00000000000004d8      0x5b8 arch/arm/cpu/armv8/built-in.o
 .debug_frame   0x0000000000000a90      0x3c0 arch/arm/lib/built-in.o
 .debug_frame   0x0000000000000e50      0x308 board/xilinx/zynqmp/built-in.o
 .debug_frame   0x0000000000001158      0x6c0 common/spl/built-in.o
 .debug_frame   0x0000000000001818       0x70 common/init/built-in.o
 .debug_frame   0x0000000000001888     0x28d0 common/built-in.o
 .debug_frame   0x0000000000004158      0x270 env/built-in.o
 .debug_frame   0x00000000000043c8     0x37f0 lib/built-in.o
 .debug_frame   0x0000000000007bb8      0x8b0 disk/built-in.o
 .debug_frame   0x0000000000008468     0x4470 drivers/built-in.o
 .debug_frame   0x000000000000c8d8      0x988 fs/built-in.o

.debug_loc      0x0000000000000000    0x7d318
 .debug_loc     0x0000000000000000     0x1997 arch/arm/mach-zynqmp/built-in.o
 .debug_loc     0x0000000000001997     0x2170 arch/arm/cpu/armv8/built-in.o
 .debug_loc     0x0000000000003b07      0x883 arch/arm/lib/built-in.o
 .debug_loc     0x000000000000438a     0x1abd board/xilinx/zynqmp/built-in.o
 .debug_loc     0x0000000000005e47     0x3622 common/spl/built-in.o
 .debug_loc     0x0000000000009469      0x18e common/init/built-in.o
 .debug_loc     0x00000000000095f7    0x18b0d common/built-in.o
 .debug_loc     0x0000000000022104      0xb5e env/built-in.o
 .debug_loc     0x0000000000022c62    0x2a7d2 lib/built-in.o
 .debug_loc     0x000000000004d434     0x518f disk/built-in.o
 .debug_loc     0x00000000000525c3    0x22e73 drivers/built-in.o
 .debug_loc     0x0000000000075436     0x7ee2 fs/built-in.o

.debug_ranges   0x0000000000000000     0xba50
 .debug_ranges  0x0000000000000000      0x3f0 arch/arm/mach-zynqmp/built-in.o
 .debug_ranges  0x00000000000003f0      0x8a0 arch/arm/cpu/armv8/built-in.o
 .debug_ranges  0x0000000000000c90      0x240 arch/arm/lib/built-in.o
 .debug_ranges  0x0000000000000ed0      0x520 board/xilinx/zynqmp/built-in.o
 .debug_ranges  0x00000000000013f0      0x810 common/spl/built-in.o
 .debug_ranges  0x0000000000001c00       0x40 common/init/built-in.o
 .debug_ranges  0x0000000000001c40     0x1fb0 common/built-in.o
 .debug_ranges  0x0000000000003bf0      0x230 env/built-in.o
 .debug_ranges  0x0000000000003e20     0x25b0 lib/built-in.o
 .debug_ranges  0x00000000000063d0      0x9e0 disk/built-in.o
 .debug_ranges  0x0000000000006db0     0x4100 drivers/built-in.o
 .debug_ranges  0x000000000000aeb0      0xba0 fs/built-in.o
